; Listing generated by Microsoft (R) Optimizing Compiler Version 19.29.30145.0 

include listing.inc

INCLUDELIB MSVCRTD
INCLUDELIB OLDNAMES

PUBLIC	?path_serv@@3PEBDEB				; path_serv
PUBLIC	?path_client@@3PEBDEB				; path_client
PUBLIC	?phi_inf@@3PEBDEB				; phi_inf
_DATA	SEGMENT
?path_serv@@3PEBDEB DQ FLAT:$SG45309			; path_serv
?path_client@@3PEBDEB DQ FLAT:$SG45311			; path_client
?phi_inf@@3PEBDEB DQ FLAT:$SG45313			; phi_inf
_DATA	ENDS
CONST	SEGMENT
$SG45296 DB	'2', 04H, 'B', 04H, 00H, 00H
	ORG $+2
$SG45297 DB	'?', 04H, '>', 04H, ';', 04H, '=', 04H, '0', 04H, 'O', 04H
	DB	' ', 00H, '<', 04H, '>', 04H, 'I', 04H, '=', 04H, '>', 04H, 'A'
	DB	04H, 'B', 04H, 'L', 04H, ':', 00H, 00H, 00H
	ORG $+6
$SG45300 DB	'=', 04H, '5', 04H, '4', 04H, '>', 04H, '?', 04H, 'C', 04H
	DB	'A', 04H, 'B', 04H, '8', 04H, '<', 04H, '>', 04H, '5', 04H, ' '
	DB	00H, '7', 04H, '=', 04H, '0', 04H, 'G', 04H, '5', 04H, '=', 04H
	DB	'8', 04H, '5', 04H, ' ', 00H, '?', 04H, '5', 04H, '@', 04H, '8'
	DB	04H, 'C', 04H, '4', 04H, '0', 04H, ' ', 00H, ',', 00H, ' ', 00H
	DB	'?', 04H, '5', 04H, '@', 04H, 'C', 04H, '4', 04H, ' ', 00H, '4'
	DB	04H, '>', 04H, ';', 04H, '6', 04H, '5', 04H, '=', 04H, ' ', 00H
	DB	'1', 04H, 'K', 04H, 'B', 04H, 'L', 04H, ' ', 00H, '1', 04H, '>'
	DB	04H, ';', 04H, 'L', 04H, 'H', 04H, '5', 04H, ' ', 00H, '0', 00H
	DB	00H, 00H
	ORG $+2
$SG45356 DB	'w+', 00H
	ORG $+5
$SG45303 DB	'=', 04H, '5', 04H, '4', 04H, '>', 04H, '?', 04H, 'C', 04H
	DB	'A', 04H, 'B', 04H, '8', 04H, '<', 04H, '>', 04H, '5', 04H, ' '
	DB	00H, '7', 04H, '=', 04H, '0', 04H, 'G', 04H, '5', 04H, '=', 04H
	DB	'8', 04H, '5', 04H, ' ', 00H, 'B', 04H, '>', 04H, ':', 04H, '0'
	DB	04H, ' ', 00H, ',', 00H, ' ', 00H, 'B', 04H, '>', 04H, ':', 04H
	DB	' ', 00H, '4', 04H, '>', 04H, ';', 04H, '6', 04H, '5', 04H, '='
	DB	04H, ' ', 00H, '1', 04H, 'K', 04H, 'B', 04H, 'L', 04H, ' ', 00H
	DB	'1', 04H, '>', 04H, ';', 04H, 'L', 04H, 'H', 04H, '5', 04H, ' '
	DB	00H, '0', 00H, 00H, 00H
	ORG $+4
$SG45306 DB	'=', 04H, '5', 04H, '4', 04H, '>', 04H, '?', 04H, 'C', 04H
	DB	'A', 04H, 'B', 04H, '8', 04H, '<', 04H, '>', 04H, '5', 04H, ' '
	DB	00H, '7', 04H, '=', 04H, '0', 04H, 'G', 04H, '5', 04H, '=', 04H
	DB	'8', 04H, '5', 04H, ' ', 00H, '=', 04H, '0', 04H, '?', 04H, '@'
	DB	04H, 'O', 04H, '6', 04H, '5', 04H, '=', 04H, '8', 04H, 'O', 04H
	DB	' ', 00H, ',', 00H, ' ', 00H, '=', 04H, '0', 04H, '?', 04H, '@'
	DB	04H, 'O', 04H, '6', 04H, '5', 04H, '=', 04H, '8', 04H, '5', 04H
	DB	' ', 00H, '4', 04H, '>', 04H, ';', 04H, '6', 04H, '=', 04H, '>'
	DB	04H, ' ', 00H, '1', 04H, 'K', 04H, 'B', 04H, 'L', 04H, ' ', 00H
	DB	'1', 04H, '>', 04H, ';', 04H, 'L', 04H, 'H', 04H, '5', 04H, ' '
	DB	00H, '=', 04H, '5', 04H, '@', 04H, '0', 04H, '2', 04H, '=', 04H
	DB	'>', 04H, ' ', 00H, '0', 00H, 00H, 00H
	ORG $+2
$SG45307 DB	'2', 04H, '>', 04H, '7', 04H, '=', 04H, '8', 04H, ':', 04H
	DB	';', 04H, '0', 04H, ' ', 00H, '=', 04H, '5', 04H, '?', 04H, '@'
	DB	04H, '5', 04H, '4', 04H, '2', 04H, '8', 04H, '4', 04H, '5', 04H
	DB	'=', 04H, '=', 04H, '0', 04H, 'O', 04H, ' ', 00H, '>', 04H, 'H'
	DB	04H, '8', 04H, '1', 04H, ':', 04H, '0', 04H, 00H, 00H
	ORG $+2
$SG45309 DB	'Server.bin', 00H
	ORG $+1
$SG45355 DB	'r', 00H
	ORG $+2
$SG45311 DB	'Client.bin', 00H
	ORG $+1
$SG45360 DB	014H, 04H, '0', 04H, 00H, 00H
	ORG $+6
$SG45313 DB	0d1H, 0e4H, 0e2H, 0e8H, 0e3H, ' ', 0f4H, 0e0H, 0e7H, ' ', 097H
	DB	' ', 0f0H, 0e0H, 0e7H, 0edH, 0eeH, 0f1H, 0f2H, 0fcH, ' ', 0ecH
	DB	0e5H, 0e6H, 0e4H, 0f3H, ' ', 0edH, 0e0H, 0f7H, 0e0H, 0ebH, 0fcH
	DB	0edH, 0fbH, 0ecH, 0e8H, ' ', 0f4H, 0e0H, 0e7H, 0e0H, 0ecH, 0e8H
	DB	' ', 0e4H, 0e2H, 0f3H, 0f5H, ' ', 0efH, 0e5H, 0f0H, 0e5H, 0ecH
	DB	0e5H, 0edH, 0edH, 0fbH, 0f5H, ' ', 0e2H, 0e5H, 0ebH, 0e8H, 0f7H
	DB	0e8H, 0edH, ', ', 0e8H, 0e7H, 0ecH, 0e5H, 0edH, 0ffH, 0feH, 0f9H
	DB	0e8H, 0f5H, 0f1H, 0ffH, ' ', 0e2H, 0eeH, ' ', 0e2H, 0f0H, 0e5H
	DB	0ecH, 0e5H, 0edH, 0e8H, ' ', 0efH, 0e5H, 0f0H, 0e8H, 0eeH, 0e4H
	DB	0e8H, 0f7H, 0e5H, 0f1H, 0eaH, 0e8H, ' ', 0f1H, ' ', 0eeH, 0e4H
	DB	0e8H, 0edH, 0e0H, 0eaH, 0eeH, 0e2H, 0eeH, 0e9H, ' ', 0f7H, 0e0H
	DB	0f1H, 0f2H, 0eeH, 0f2H, 0eeH, 0e9H, '.', 0aH, 0d1H, 0e4H, 0e2H
	DB	0e8H, 0e3H, ' ', 0f4H, 0e0H, 0e7H, ' ', 0ffH, 0e2H, 0ebH, 0ffH
	DB	0e5H, 0f2H, 0f1H, 0ffH, ' ', 0e2H, 0e5H, 0ebH, 0e8H, 0f7H, 0e8H
	DB	0edH, 0eeH, 0e9H, ' ', 0e1H, 0e5H, 0e7H, 0f0H, 0e0H, 0e7H, 0ecH
	DB	0e5H, 0f0H, 0edH, 0eeH, 0e9H, ' ', 0e8H, ' ', 0ecH, 0eeH, 0e6H
	DB	0e5H, 0f2H, ' ', 0e8H, 0e7H, 0ecH, 0e5H, 0f0H, 0ffH, 0f2H, 0fcH
	DB	0f1H, 0ffH, ' ', 0e2H, ' ', 0f0H, 0e0H, 0e4H, 0e8H, 0e0H, 0edH
	DB	0e0H, 0f5H, '(', 0e3H, 0f0H, 0e0H, 0e4H, 0f3H, 0f1H, 0e0H, 0f5H
	DB	') ', 0e8H, 0ebH, 0e8H, ' ', 0e4H, 0eeH, 0ebH, 0ffH, 0f5H, ' ', 0efH
	DB	0e5H, 0f0H, 0e8H, 0eeH, 0e4H, 0e0H, '.', 0aH, 0cfH, 0f0H, 0e8H
	DB	' ', 0edH, 0e5H, 0e8H, 0e7H, 0ecH, 0e5H, 0edH, 0edH, 0eeH, 0ecH
	DB	', ', 0e2H, ' ', 0f7H, 0e0H, 0f1H, 0f2H, 0edH, 0eeH, 0f1H, 0f2H
	DB	0e8H, ' ', 0edH, 0f3H, 0ebH, 0e5H, 0e2H, 0eeH, 0ecH, ' ', 0f1H
	DB	0e4H, 0e2H, 0e8H, 0e3H, 0e5H, ' ', 0f4H, 0e0H, 0e7H, ' ', 0e3H
	DB	0eeH, 0e2H, 0eeH, 0f0H, 0ffH, 0f2H, ' ', 0eeH, ' ', 0eaH, 0eeH
	DB	0e3H, 0e5H, 0f0H, 0e5H, 0edH, 0f2H, 0edH, 0eeH, 0f1H, 0f2H, 0e8H
	DB	' ', 0e4H, 0e2H, 0f3H, 0f5H, ' ', 0efH, 0f0H, 0eeH, 0f6H, 0e5H
	DB	0f1H, 0f1H, 0eeH, 0e2H, '.', 0aH, 0d4H, 0e0H, 0e7H, 0eeH, 0e9H
	DB	'(', 0f4H, 0e0H, 0e7H, 0eeH, 0e2H, 0fbH, 0ecH, ' ', 0f3H, 0e3H
	DB	0ebH, 0eeH, 0ecH, ') ', 0edH, 0e0H, 0e7H, 0fbH, 0e2H, 0e0H, 0e5H
	DB	0f2H, 0f1H, 0ffH, ' ', 0f3H, 0e3H, 0eeH, 0ebH, '  phi = 2pi * '
	DB	'(t / T), ', 0e3H, 0e4H, 0e5H, ' T ', 097H, ' ', 0efH, 0e5H, 0f0H
	DB	0e8H, 0eeH, 0e4H, ', t ', 097H, ' ', 0e4H, 0eeH, 0ebH, 0ffH, ' '
	DB	0efH, 0e5H, 0f0H, 0e8H, 0eeH, 0e4H, 0e0H, ' ', 0f1H, 0ecH, 0e5H
	DB	0f9H, 0e5H, 0edH, 0e8H, 0ffH, ' ', 0efH, 0eeH, ' ', 0f4H, 0e0H
	DB	0e7H, 0e5H, ' ', 0efH, 0f0H, 0e8H, ' ', 0edH, 0e0H, 0ebH, 0eeH
	DB	0e6H, 0e5H, 0edH, 0e8H, 0e8H, ' ', 0f1H, 0e8H, 0edH, 0f3H, 0f1H
	DB	0eeH, 0e8H, 0e4H, ' ', 0e4H, 0f0H, 0f3H, 0e3H, ' ', 0edH, 0e0H
	DB	' ', 0e4H, 0f0H, 0f3H, 0e3H, 0e0H, '.', 0aH, 0d2H, 0e0H, 0eaH, ' '
	DB	0f7H, 0f2H, 0eeH, ' ', 0e5H, 0f1H, 0ebH, 0e8H, ' ', 0eaH, 0f0H
	DB	0e8H, 0e2H, 0fbH, 0e5H, '(', 0efH, 0e5H, 0f0H, 0e5H, 0ecH, 0e5H
	DB	0edH, 0edH, 0fbH, 0e5H, ' ', 0e2H, 0e5H, 0ebH, 0e8H, 0f7H, 0e8H
	DB	0edH, 0fbH, ' ', 097H, ' ', 0f1H, 0e8H, 0edH, 0f3H, 0f1H, 0eeH
	DB	0e8H, 0e4H, 0fbH, ' : ', 0eaH, 0eeH, 0ebH, 0e5H, 0e1H, 0e0H, 0edH
	DB	0e8H, 0ffH, ', ', 0f2H, 0eeH, 0eaH, 0e8H, ') ', 0f1H, 0e4H, 0e2H
	DB	0e8H, 0edH, 0f3H, 0f2H, 0fbH, ' ', 0efH, 0eeH, ' ', 0eeH, 0f2H
	DB	0edH, 0eeH, 0f8H, 0e5H, 0edH, 0e8H, 0feH, ' ', 0e4H, 0f0H, 0f3H
	DB	0e3H, ' ', 0eaH, ' ', 0e4H, 0f0H, 0f3H, 0e3H, 0f3H, ' ', 0edH, 0e0H
	DB	' ', 0f7H, 0e5H, 0f2H, 0e2H, 0e5H, 0f0H, 0f2H, 0fcH, ' ', 0efH
	DB	0e5H, 0f0H, 0e8H, 0eeH, 0e4H, 0e0H, ',', 0aH, 0f2H, 0eeH, ' ', 0ecH
	DB	0fbH, ' ', 0e3H, 0eeH, 0e2H, 0eeH, 0f0H, 0e8H, 0ecH, ', ', 0f7H
	DB	0f2H, 0eeH, ' ', 0eeH, 0edH, 0e8H, ' ', 0f1H, 0ecH, 0e5H, 0f9H
	DB	0e5H, 0edH, 0fbH, ' ', 0efH, 0eeH, ' ', 0f4H, 0e0H, 0e7H, 0e5H
	DB	' ', 0edH, 0e0H, ' pi / 2(90 *), ', 0e5H, 0f1H, 0ebH, 0e8H, ' '
	DB	0edH, 0e0H, ' ', 0e2H, 0eeH, 0f1H, 0fcH, 0ecH, 0f3H, 0feH, ' ', 0f7H
	DB	0e0H, 0f1H, 0f2H, 0fcH, '(', 0e4H, 0eeH, 0ebH, 0feH, ') ', 0efH
	DB	0e5H, 0f0H, 0e8H, 0eeH, 0e4H, 0e0H, ' ', 097H, ' ', 0f2H, 0eeH
	DB	',', 0aH, 0e7H, 0edH, 0e0H, 0f7H, 0e8H, 0f2H, ', ', 0edH, 0e0H
	DB	' pi / 4 ', 0e8H, ' ', 0f2H, '.', 0e4H, '.', 00H
	ORG $+5
$SG45357 DB	012H, 04H, 'K', 04H, ' ', 00H, 'E', 04H, '>', 04H, 'B', 04H
	DB	'8', 04H, 'B', 04H, '5', 04H, ' ', 00H, '7', 04H, '0', 04H, '2'
	DB	04H, '5', 04H, '@', 04H, 'H', 04H, '8', 04H, 'B', 04H, 'L', 04H
	DB	' ', 00H, '?', 04H, '@', 04H, '>', 04H, '3', 04H, '@', 04H, '0'
	DB	04H, '<', 04H, '<', 04H, 'C', 04H, '?', 00H, '(', 00H, 014H, 04H
	DB	'0', 04H, '/', 00H, 01dH, 04H, '5', 04H, 'B', 04H, ')', 00H, 00H
	DB	00H
	ORG $+2
$SG45361 DB	012H, 04H, '2', 04H, '5', 04H, '4', 04H, '8', 04H, 'B', 04H
	DB	'5', 04H, ' ', 00H, '7', 04H, '=', 04H, '0', 04H, 'G', 04H, '5'
	DB	04H, '=', 04H, '8', 04H, 'O', 04H, ' ', 00H, '=', 04H, '0', 04H
	DB	'?', 04H, '@', 04H, 'O', 04H, '6', 04H, '5', 04H, '=', 04H, '8'
	DB	04H, 'O', 04H, ' ', 00H, '2', 04H, ' ', 00H, '2', 04H, '>', 04H
	DB	';', 04H, 'L', 04H, 'B', 04H, '0', 04H, 'E', 04H, ' ', 00H, '2'
	DB	04H, ' ', 00H, 'F', 04H, '5', 04H, ';', 04H, '>', 04H, 'G', 04H
	DB	'8', 04H, 'A', 04H, ';', 04H, '5', 04H, '=', 04H, '=', 04H, '>'
	DB	04H, '<', 04H, ' ', 00H, '2', 04H, '8', 04H, '4', 04H, '5', 04H
	DB	00H, 00H
	ORG $+2
$SG56599 DB	'invalid argument', 00H
	ORG $+7
$SG45362 DB	012H, 04H, '2', 04H, '5', 04H, '4', 04H, '8', 04H, 'B', 04H
	DB	'5', 04H, ' ', 00H, '7', 04H, '=', 04H, '0', 04H, 'G', 04H, '5'
	DB	04H, '=', 04H, '8', 04H, '5', 04H, ' ', 00H, 'B', 04H, '>', 04H
	DB	':', 04H, '0', 04H, ' ', 00H, '2', 04H, ' ', 00H, '0', 04H, '<'
	DB	04H, '?', 04H, '5', 04H, '@', 04H, '0', 04H, 'E', 04H, ' ', 00H
	DB	'(', 00H, '4', 04H, '>', 04H, '?', 04H, 'C', 04H, 'A', 04H, ':'
	DB	04H, '0', 04H, '5', 04H, 'B', 04H, 'A', 04H, 'O', 04H, ' ', 00H
	DB	'=', 04H, '5', 04H, 'F', 04H, '0', 04H, ';', 04H, '0', 04H, 'O'
	DB	04H, ' ', 00H, 'G', 04H, '0', 04H, 'A', 04H, 'B', 04H, 'L', 04H
	DB	' ', 00H, ',', 00H, ' ', 00H, 'G', 04H, '0', 04H, 'A', 04H, 'B'
	DB	04H, '8', 04H, ' ', 00H, '@', 04H, '0', 04H, '7', 04H, '4', 04H
	DB	'5', 04H, ';', 04H, 'O', 04H, 'N', 04H, 'B', 04H, 'A', 04H, 'O'
	DB	04H, ' ', 00H, 'B', 04H, '>', 04H, 'G', 04H, ':', 04H, '>', 04H
	DB	'9', 04H, ')', 00H, 00H, 00H
	ORG $+2
$SG45363 DB	012H, 04H, '2', 04H, '5', 04H, '4', 04H, '8', 04H, 'B', 04H
	DB	'5', 04H, ' ', 00H, '7', 04H, '=', 04H, '0', 04H, 'G', 04H, '5'
	DB	04H, '=', 04H, '8', 04H, '5', 04H, ' ', 00H, '?', 04H, '5', 04H
	DB	'@', 04H, '8', 04H, 'C', 04H, '4', 04H, '0', 04H, ' ', 00H, '2'
	DB	04H, ' ', 00H, 'A', 04H, '5', 04H, ':', 04H, 'C', 04H, '=', 04H
	DB	'4', 04H, '0', 04H, 'E', 04H, ' ', 00H, '2', 04H, ' ', 00H, 'F'
	DB	04H, '5', 04H, ';', 04H, '>', 04H, 'G', 04H, '8', 04H, 'A', 04H
	DB	';', 04H, '5', 04H, '=', 04H, '=', 04H, '>', 04H, '<', 04H, ' '
	DB	00H, '2', 04H, '8', 04H, '4', 04H, '5', 04H, 00H, 00H
	ORG $+2
$SG56600 DB	'%s', 00H
	ORG $+1
$SG56604 DB	'"', 00H, 'i', 00H, 'n', 00H, 'v', 00H, 'a', 00H, 'l', 00H
	DB	'i', 00H, 'd', 00H, ' ', 00H, 'a', 00H, 'r', 00H, 'g', 00H, 'u'
	DB	00H, 'm', 00H, 'e', 00H, 'n', 00H, 't', 00H, '"', 00H, 00H, 00H
	ORG $+2
$SG55838 DB	'C:\Program Files (x86)\Microsoft Visual Studio\2019\Comm'
	DB	'unity\VC\Tools\MSVC\14.29.30133\include\xlocale', 00H
$SG56603 DB	00H, 00H
	ORG $+6
$SG56601 DB	'C:\Program Files (x86)\Microsoft Visual Studio\2019\Comm'
	DB	'unity\VC\Tools\MSVC\14.29.30133\include\xmemory', 00H
	ORG $+8
$SG56602 DB	'C', 00H, ':', 00H, '\', 00H, 'P', 00H, 'r', 00H, 'o', 00H
	DB	'g', 00H, 'r', 00H, 'a', 00H, 'm', 00H, ' ', 00H, 'F', 00H, 'i'
	DB	00H, 'l', 00H, 'e', 00H, 's', 00H, ' ', 00H, '(', 00H, 'x', 00H
	DB	'8', 00H, '6', 00H, ')', 00H, '\', 00H, 'M', 00H, 'i', 00H, 'c'
	DB	00H, 'r', 00H, 'o', 00H, 's', 00H, 'o', 00H, 'f', 00H, 't', 00H
	DB	' ', 00H, 'V', 00H, 'i', 00H, 's', 00H, 'u', 00H, 'a', 00H, 'l'
	DB	00H, ' ', 00H, 'S', 00H, 't', 00H, 'u', 00H, 'd', 00H, 'i', 00H
	DB	'o', 00H, '\', 00H, '2', 00H, '0', 00H, '1', 00H, '9', 00H, '\'
	DB	00H, 'C', 00H, 'o', 00H, 'm', 00H, 'm', 00H, 'u', 00H, 'n', 00H
	DB	'i', 00H, 't', 00H, 'y', 00H, '\', 00H, 'V', 00H, 'C', 00H, '\'
	DB	00H, 'T', 00H, 'o', 00H, 'o', 00H, 'l', 00H, 's', 00H, '\', 00H
	DB	'M', 00H, 'S', 00H, 'V', 00H, 'C', 00H, '\', 00H, '1', 00H, '4'
	DB	00H, '.', 00H, '2', 00H, '9', 00H, '.', 00H, '3', 00H, '0', 00H
	DB	'1', 00H, '3', 00H, '3', 00H, '\', 00H, 'i', 00H, 'n', 00H, 'c'
	DB	00H, 'l', 00H, 'u', 00H, 'd', 00H, 'e', 00H, '\', 00H, 'x', 00H
	DB	'm', 00H, 'e', 00H, 'm', 00H, 'o', 00H, 'r', 00H, 'y', 00H, 00H
	DB	00H
CONST	ENDS
PUBLIC	?__empty_global_delete@@YAXPEAX@Z		; __empty_global_delete
PUBLIC	?__empty_global_delete@@YAXPEAX_K@Z		; __empty_global_delete
PUBLIC	??2@YAPEAX_KPEAX@Z				; operator new
PUBLIC	wmemcmp
PUBLIC	wmemcpy
PUBLIC	??0exception@std@@QEAA@QEBDH@Z			; std::exception::exception
PUBLIC	??0exception@std@@QEAA@AEBV01@@Z		; std::exception::exception
PUBLIC	??1exception@std@@UEAA@XZ			; std::exception::~exception
PUBLIC	?what@exception@std@@UEBAPEBDXZ			; std::exception::what
PUBLIC	??_Gexception@std@@UEAAPEAXI@Z			; std::exception::`scalar deleting destructor'
PUBLIC	??0bad_alloc@std@@AEAA@QEBD@Z			; std::bad_alloc::bad_alloc
PUBLIC	??1bad_alloc@std@@UEAA@XZ			; std::bad_alloc::~bad_alloc
PUBLIC	??0bad_alloc@std@@QEAA@AEBV01@@Z		; std::bad_alloc::bad_alloc
PUBLIC	??_Gbad_alloc@std@@UEAAPEAXI@Z			; std::bad_alloc::`scalar deleting destructor'
PUBLIC	??0bad_array_new_length@std@@QEAA@XZ		; std::bad_array_new_length::bad_array_new_length
PUBLIC	??1bad_array_new_length@std@@UEAA@XZ		; std::bad_array_new_length::~bad_array_new_length
PUBLIC	??0bad_array_new_length@std@@QEAA@AEBV01@@Z	; std::bad_array_new_length::bad_array_new_length
PUBLIC	??_Gbad_array_new_length@std@@UEAAPEAXI@Z	; std::bad_array_new_length::`scalar deleting destructor'
PUBLIC	?_Throw_bad_array_new_length@std@@YAXXZ		; std::_Throw_bad_array_new_length
PUBLIC	?max@?$numeric_limits@_J@std@@SA_JXZ		; std::numeric_limits<__int64>::max
PUBLIC	?_Allocate@_Default_allocate_traits@std@@SAPEAX_K@Z ; std::_Default_allocate_traits::_Allocate
PUBLIC	?_Adjust_manually_vector_aligned@std@@YAXAEAPEAXAEA_K@Z ; std::_Adjust_manually_vector_aligned
PUBLIC	??0_Container_proxy@std@@QEAA@PEAU_Container_base12@1@@Z ; std::_Container_proxy::_Container_proxy
PUBLIC	??0_Container_base12@std@@QEAA@XZ		; std::_Container_base12::_Container_base12
PUBLIC	?_Orphan_all@_Container_base12@std@@QEAAXXZ	; std::_Container_base12::_Orphan_all
PUBLIC	?_Orphan_all_unlocked_v3@_Container_base12@std@@AEAAXXZ ; std::_Container_base12::_Orphan_all_unlocked_v3
PUBLIC	?_Orphan_all_locked_v3@_Container_base12@std@@AEAAXXZ ; std::_Container_base12::_Orphan_all_locked_v3
PUBLIC	??$_Construct_in_place@U_Container_proxy@std@@PEAU_Container_base12@2@@std@@YAXAEAU_Container_proxy@0@$$QEAPEAU_Container_base12@0@@Z ; std::_Construct_in_place<std::_Container_proxy,std::_Container_base12 *>
PUBLIC	?copy@?$_Char_traits@_WG@std@@SAPEA_WQEA_WQEB_W_K@Z ; std::_Char_traits<wchar_t,unsigned short>::copy
PUBLIC	?compare@?$_WChar_traits@_W@std@@SAHQEB_W0_K@Z	; std::_WChar_traits<wchar_t>::compare
PUBLIC	?length@?$_WChar_traits@_W@std@@SA_KPEB_W@Z	; std::_WChar_traits<wchar_t>::length
PUBLIC	?assign@?$_WChar_traits@_W@std@@SAXAEA_WAEB_W@Z	; std::_WChar_traits<wchar_t>::assign
PUBLIC	?to_char_type@?$_WChar_traits@_W@std@@SA_WAEBG@Z ; std::_WChar_traits<wchar_t>::to_char_type
PUBLIC	?eq_int_type@?$_WChar_traits@_W@std@@SA_NAEBG0@Z ; std::_WChar_traits<wchar_t>::eq_int_type
PUBLIC	?eof@?$_WChar_traits@_W@std@@SAGXZ		; std::_WChar_traits<wchar_t>::eof
PUBLIC	?_Xlen_string@std@@YAXXZ			; std::_Xlen_string
PUBLIC	??0?$allocator@_W@std@@QEAA@XZ			; std::allocator<wchar_t>::allocator<wchar_t>
PUBLIC	?deallocate@?$allocator@_W@std@@QEAAXQEA_W_K@Z	; std::allocator<wchar_t>::deallocate
PUBLIC	?allocate@?$allocator@_W@std@@QEAAPEA_W_K@Z	; std::allocator<wchar_t>::allocate
PUBLIC	?max_size@?$_Default_allocator_traits@V?$allocator@_W@std@@@std@@SA_KAEBV?$allocator@_W@2@@Z ; std::_Default_allocator_traits<std::allocator<wchar_t> >::max_size
PUBLIC	??0?$_String_val@U?$_Simple_types@_W@std@@@std@@QEAA@XZ ; std::_String_val<std::_Simple_types<wchar_t> >::_String_val<std::_Simple_types<wchar_t> >
PUBLIC	?_Myptr@?$_String_val@U?$_Simple_types@_W@std@@@std@@QEAAPEA_WXZ ; std::_String_val<std::_Simple_types<wchar_t> >::_Myptr
PUBLIC	?_Myptr@?$_String_val@U?$_Simple_types@_W@std@@@std@@QEBAPEB_WXZ ; std::_String_val<std::_Simple_types<wchar_t> >::_Myptr
PUBLIC	?_Large_string_engaged@?$_String_val@U?$_Simple_types@_W@std@@@std@@QEBA_NXZ ; std::_String_val<std::_Simple_types<wchar_t> >::_Large_string_engaged
PUBLIC	?_Check_offset@?$_String_val@U?$_Simple_types@_W@std@@@std@@QEBAX_K@Z ; std::_String_val<std::_Simple_types<wchar_t> >::_Check_offset
PUBLIC	?_Xran@?$_String_val@U?$_Simple_types@_W@std@@@std@@SAXXZ ; std::_String_val<std::_Simple_types<wchar_t> >::_Xran
PUBLIC	??0_Bxty@?$_String_val@U?$_Simple_types@_W@std@@@std@@QEAA@XZ ; std::_String_val<std::_Simple_types<wchar_t> >::_Bxty::_Bxty
PUBLIC	??1_Bxty@?$_String_val@U?$_Simple_types@_W@std@@@std@@QEAA@XZ ; std::_String_val<std::_Simple_types<wchar_t> >::_Bxty::~_Bxty
PUBLIC	??1?$_String_val@U?$_Simple_types@_W@std@@@std@@QEAA@XZ ; std::_String_val<std::_Simple_types<wchar_t> >::~_String_val<std::_Simple_types<wchar_t> >
PUBLIC	??0?$basic_string@_WU?$char_traits@_W@std@@V?$allocator@_W@2@@std@@QEAA@XZ ; std::basic_string<wchar_t,std::char_traits<wchar_t>,std::allocator<wchar_t> >::basic_string<wchar_t,std::char_traits<wchar_t>,std::allocator<wchar_t> >
PUBLIC	??1?$basic_string@_WU?$char_traits@_W@std@@V?$allocator@_W@2@@std@@QEAA@XZ ; std::basic_string<wchar_t,std::char_traits<wchar_t>,std::allocator<wchar_t> >::~basic_string<wchar_t,std::char_traits<wchar_t>,std::allocator<wchar_t> >
PUBLIC	?erase@?$basic_string@_WU?$char_traits@_W@std@@V?$allocator@_W@2@@std@@QEAAAEAV12@_K@Z ; std::basic_string<wchar_t,std::char_traits<wchar_t>,std::allocator<wchar_t> >::erase
PUBLIC	?push_back@?$basic_string@_WU?$char_traits@_W@std@@V?$allocator@_W@2@@std@@QEAAX_W@Z ; std::basic_string<wchar_t,std::char_traits<wchar_t>,std::allocator<wchar_t> >::push_back
PUBLIC	?max_size@?$basic_string@_WU?$char_traits@_W@std@@V?$allocator@_W@2@@std@@QEBA_KXZ ; std::basic_string<wchar_t,std::char_traits<wchar_t>,std::allocator<wchar_t> >::max_size
PUBLIC	?_Equal@?$basic_string@_WU?$char_traits@_W@std@@V?$allocator@_W@2@@std@@QEBA_NQEB_W@Z ; std::basic_string<wchar_t,std::char_traits<wchar_t>,std::allocator<wchar_t> >::_Equal
PUBLIC	?_Calculate_growth@?$basic_string@_WU?$char_traits@_W@std@@V?$allocator@_W@2@@std@@CA_K_K00@Z ; std::basic_string<wchar_t,std::char_traits<wchar_t>,std::allocator<wchar_t> >::_Calculate_growth
PUBLIC	?_Calculate_growth@?$basic_string@_WU?$char_traits@_W@std@@V?$allocator@_W@2@@std@@AEBA_K_K@Z ; std::basic_string<wchar_t,std::char_traits<wchar_t>,std::allocator<wchar_t> >::_Calculate_growth
PUBLIC	?_Eos@?$basic_string@_WU?$char_traits@_W@std@@V?$allocator@_W@2@@std@@AEAAX_K@Z ; std::basic_string<wchar_t,std::char_traits<wchar_t>,std::allocator<wchar_t> >::_Eos
PUBLIC	?_Tidy_init@?$basic_string@_WU?$char_traits@_W@std@@V?$allocator@_W@2@@std@@AEAAXXZ ; std::basic_string<wchar_t,std::char_traits<wchar_t>,std::allocator<wchar_t> >::_Tidy_init
PUBLIC	?_Tidy_deallocate@?$basic_string@_WU?$char_traits@_W@std@@V?$allocator@_W@2@@std@@AEAAXXZ ; std::basic_string<wchar_t,std::char_traits<wchar_t>,std::allocator<wchar_t> >::_Tidy_deallocate
PUBLIC	?_Getal@?$basic_string@_WU?$char_traits@_W@std@@V?$allocator@_W@2@@std@@AEAAAEAV?$allocator@_W@2@XZ ; std::basic_string<wchar_t,std::char_traits<wchar_t>,std::allocator<wchar_t> >::_Getal
PUBLIC	?_Getal@?$basic_string@_WU?$char_traits@_W@std@@V?$allocator@_W@2@@std@@AEBAAEBV?$allocator@_W@2@XZ ; std::basic_string<wchar_t,std::char_traits<wchar_t>,std::allocator<wchar_t> >::_Getal
PUBLIC	?_Get_first@?$_Compressed_pair@V?$allocator@_W@std@@V?$_String_val@U?$_Simple_types@_W@std@@@2@$00@std@@QEAAAEAV?$allocator@_W@2@XZ ; std::_Compressed_pair<std::allocator<wchar_t>,std::_String_val<std::_Simple_types<wchar_t> >,1>::_Get_first
PUBLIC	?_Get_first@?$_Compressed_pair@V?$allocator@_W@std@@V?$_String_val@U?$_Simple_types@_W@std@@@2@$00@std@@QEBAAEBV?$allocator@_W@2@XZ ; std::_Compressed_pair<std::allocator<wchar_t>,std::_String_val<std::_Simple_types<wchar_t> >,1>::_Get_first
PUBLIC	??1?$_Compressed_pair@V?$allocator@_W@std@@V?$_String_val@U?$_Simple_types@_W@std@@@2@$00@std@@QEAA@XZ ; std::_Compressed_pair<std::allocator<wchar_t>,std::_String_val<std::_Simple_types<wchar_t> >,1>::~_Compressed_pair<std::allocator<wchar_t>,std::_String_val<std::_Simple_types<wchar_t> >,1>
PUBLIC	??0bad_cast@std@@QEAA@XZ			; std::bad_cast::bad_cast
PUBLIC	??1bad_cast@std@@UEAA@XZ			; std::bad_cast::~bad_cast
PUBLIC	??0bad_cast@std@@QEAA@AEBV01@@Z			; std::bad_cast::bad_cast
PUBLIC	??_Gbad_cast@std@@UEAAPEAXI@Z			; std::bad_cast::`scalar deleting destructor'
PUBLIC	?_Throw_bad_cast@std@@YAXXZ			; std::_Throw_bad_cast
PUBLIC	??1locale@std@@QEAA@XZ				; std::locale::~locale
PUBLIC	?_Getfacet@locale@std@@QEBAPEBVfacet@12@_K@Z	; std::locale::_Getfacet
PUBLIC	??$_Maklocstr@_W@std@@YAPEA_WPEBDPEA_WAEBU_Cvtvec@@@Z ; std::_Maklocstr<wchar_t>
PUBLIC	?_Maklocwcs@std@@YAPEA_WPEB_W@Z			; std::_Maklocwcs
PUBLIC	??$_Maklocstr@D@std@@YAPEADPEBDPEADAEBU_Cvtvec@@@Z ; std::_Maklocstr<char>
PUBLIC	??$_Getvals@_W@?$time_get@DV?$istreambuf_iterator@DU?$char_traits@D@std@@@std@@@std@@IEAAX_WAEBV_Locinfo@1@@Z ; std::time_get<char,std::istreambuf_iterator<char,std::char_traits<char> > >::_Getvals<wchar_t>
PUBLIC	??$_Getvals@_W@?$time_get@_WV?$istreambuf_iterator@_WU?$char_traits@_W@std@@@std@@@std@@IEAAX_WAEBV_Locinfo@1@@Z ; std::time_get<wchar_t,std::istreambuf_iterator<wchar_t,std::char_traits<wchar_t> > >::_Getvals<wchar_t>
PUBLIC	?WriteModel@@YAXPEAU_iobuf@@UModel@@@Z		; WriteModel
PUBLIC	?ReadResult@@YAXPEAU_iobuf@@@Z			; ReadResult
PUBLIC	??$?6_WU?$char_traits@_W@std@@@std@@YAAEAV?$basic_ostream@_WU?$char_traits@_W@std@@@0@AEAV10@PEB_W@Z ; std::operator<<<wchar_t,std::char_traits<wchar_t> >
PUBLIC	??$endl@_WU?$char_traits@_W@std@@@std@@YAAEAV?$basic_ostream@_WU?$char_traits@_W@std@@@0@AEAV10@@Z ; std::endl<wchar_t,std::char_traits<wchar_t> >
PUBLIC	?SetLocale@@YAXXZ				; SetLocale
PUBLIC	main
PUBLIC	??$?5_WU?$char_traits@_W@std@@V?$allocator@_W@1@@std@@YAAEAV?$basic_istream@_WU?$char_traits@_W@std@@@0@$$QEAV10@AEAV?$basic_string@_WU?$char_traits@_W@std@@V?$allocator@_W@2@@0@@Z ; std::operator>><wchar_t,std::char_traits<wchar_t>,std::allocator<wchar_t> >
PUBLIC	??$?5_WU?$char_traits@_W@std@@V?$allocator@_W@1@@std@@YAAEAV?$basic_istream@_WU?$char_traits@_W@std@@@0@AEAV10@AEAV?$basic_string@_WU?$char_traits@_W@std@@V?$allocator@_W@2@@0@@Z ; std::operator>><wchar_t,std::char_traits<wchar_t>,std::allocator<wchar_t> >
PUBLIC	??$?8_WU?$char_traits@_W@std@@V?$allocator@_W@1@@std@@YA_NAEBV?$basic_string@_WU?$char_traits@_W@std@@V?$allocator@_W@2@@0@QEB_W@Z ; std::operator==<wchar_t,std::char_traits<wchar_t>,std::allocator<wchar_t> >
PUBLIC	??$use_facet@V?$ctype@_W@std@@@std@@YAAEBV?$ctype@_W@0@AEBVlocale@0@@Z ; std::use_facet<std::ctype<wchar_t> >
PUBLIC	??0_Sentry_base@?$basic_ostream@_WU?$char_traits@_W@std@@@std@@QEAA@AEAV12@@Z ; std::basic_ostream<wchar_t,std::char_traits<wchar_t> >::_Sentry_base::_Sentry_base
PUBLIC	??1_Sentry_base@?$basic_ostream@_WU?$char_traits@_W@std@@@std@@QEAA@XZ ; std::basic_ostream<wchar_t,std::char_traits<wchar_t> >::_Sentry_base::~_Sentry_base
PUBLIC	??0sentry@?$basic_ostream@_WU?$char_traits@_W@std@@@std@@QEAA@AEAV12@@Z ; std::basic_ostream<wchar_t,std::char_traits<wchar_t> >::sentry::sentry
PUBLIC	??1sentry@?$basic_ostream@_WU?$char_traits@_W@std@@@std@@QEAA@XZ ; std::basic_ostream<wchar_t,std::char_traits<wchar_t> >::sentry::~sentry
PUBLIC	??Bsentry@?$basic_ostream@_WU?$char_traits@_W@std@@@std@@QEBA_NXZ ; std::basic_ostream<wchar_t,std::char_traits<wchar_t> >::sentry::operator bool
PUBLIC	??$min@_K@std@@YAAEB_KAEB_K0@Z			; std::min<unsigned __int64>
PUBLIC	?allocate@?$allocator@U_Container_proxy@std@@@std@@QEAAPEAU_Container_proxy@2@_K@Z ; std::allocator<std::_Container_proxy>::allocate
PUBLIC	??$_Delete_plain_internal@V?$allocator@U_Container_proxy@std@@@std@@@std@@YAXAEAV?$allocator@U_Container_proxy@std@@@0@QEAU_Container_proxy@0@@Z ; std::_Delete_plain_internal<std::allocator<std::_Container_proxy> >
PUBLIC	??$?0_W@?$allocator@U_Container_proxy@std@@@std@@QEAA@AEBV?$allocator@_W@1@@Z ; std::allocator<std::_Container_proxy>::allocator<std::_Container_proxy><wchar_t>
PUBLIC	??$_Alloc_proxy@V?$allocator@U_Container_proxy@std@@@std@@@_Container_base12@std@@QEAAX$$QEAV?$allocator@U_Container_proxy@std@@@1@@Z ; std::_Container_base12::_Alloc_proxy<std::allocator<std::_Container_proxy> >
PUBLIC	??$?0$$V@?$_Compressed_pair@V?$allocator@_W@std@@V?$_String_val@U?$_Simple_types@_W@std@@@2@$00@std@@QEAA@U_Zero_then_variadic_args_t@1@@Z ; std::_Compressed_pair<std::allocator<wchar_t>,std::_String_val<std::_Simple_types<wchar_t> >,1>::_Compressed_pair<std::allocator<wchar_t>,std::_String_val<std::_Simple_types<wchar_t> >,1><>
PUBLIC	??$_Unfancy@U_Container_proxy@std@@@std@@YAPEAU_Container_proxy@0@PEAU10@@Z ; std::_Unfancy<std::_Container_proxy>
PUBLIC	??$_Destroy_in_place@PEA_W@std@@YAXAEAPEA_W@Z	; std::_Destroy_in_place<wchar_t *>
PUBLIC	??R<lambda_25953b27f3c43b57ba59f021c7f225c5>@@QEBA@QEA_WQEB_W_K_W@Z ; <lambda_25953b27f3c43b57ba59f021c7f225c5>::operator()
PUBLIC	??$_Reallocate_grow_by@V<lambda_25953b27f3c43b57ba59f021c7f225c5>@@_W@?$basic_string@_WU?$char_traits@_W@std@@V?$allocator@_W@2@@std@@AEAAAEAV01@_KV<lambda_25953b27f3c43b57ba59f021c7f225c5>@@_W@Z ; std::basic_string<wchar_t,std::char_traits<wchar_t>,std::allocator<wchar_t> >::_Reallocate_grow_by<<lambda_25953b27f3c43b57ba59f021c7f225c5>,wchar_t>
PUBLIC	??$_Unfancy@_W@std@@YAPEA_WPEA_W@Z		; std::_Unfancy<wchar_t>
PUBLIC	??$max@_K@std@@YAAEB_KAEB_K0@Z			; std::max<unsigned __int64>
PUBLIC	??$_Get_size_of_n@$0BA@@std@@YA_K_K@Z		; std::_Get_size_of_n<16>
PUBLIC	??$_Allocate@$0BA@U_Default_allocate_traits@std@@$0A@@std@@YAPEAX_K@Z ; std::_Allocate<16,std::_Default_allocate_traits,0>
PUBLIC	??$_Deallocate@$0BA@$0A@@std@@YAXPEAX_K@Z	; std::_Deallocate<16,0>
PUBLIC	??$_Construct_in_place@PEA_WAEBQEA_W@std@@YAXAEAPEA_WAEBQEA_W@Z ; std::_Construct_in_place<wchar_t *,wchar_t * const &>
PUBLIC	??$_Get_size_of_n@$01@std@@YA_K_K@Z		; std::_Get_size_of_n<2>
PUBLIC	??$addressof@U_Container_proxy@std@@@std@@YAPEAU_Container_proxy@0@AEAU10@@Z ; std::addressof<std::_Container_proxy>
PUBLIC	??$_Voidify_iter@PEAU_Container_proxy@std@@@std@@YAPEAXPEAU_Container_proxy@0@@Z ; std::_Voidify_iter<std::_Container_proxy *>
PUBLIC	??$forward@PEAU_Container_base12@std@@@std@@YA$$QEAPEAU_Container_base12@0@AEAPEAU10@@Z ; std::forward<std::_Container_base12 *>
PUBLIC	??R?$default_delete@V_Facet_base@std@@@std@@QEBAXPEAV_Facet_base@1@@Z ; std::default_delete<std::_Facet_base>::operator()
PUBLIC	??1?$unique_ptr@V_Facet_base@std@@U?$default_delete@V_Facet_base@std@@@2@@std@@QEAA@XZ ; std::unique_ptr<std::_Facet_base,std::default_delete<std::_Facet_base> >::~unique_ptr<std::_Facet_base,std::default_delete<std::_Facet_base> >
PUBLIC	?release@?$unique_ptr@V_Facet_base@std@@U?$default_delete@V_Facet_base@std@@@2@@std@@QEAAPEAV_Facet_base@2@XZ ; std::unique_ptr<std::_Facet_base,std::default_delete<std::_Facet_base> >::release
PUBLIC	?_Get_first@?$_Compressed_pair@U?$default_delete@V_Facet_base@std@@@std@@PEAV_Facet_base@2@$00@std@@QEAAAEAU?$default_delete@V_Facet_base@std@@@2@XZ ; std::_Compressed_pair<std::default_delete<std::_Facet_base>,std::_Facet_base *,1>::_Get_first
PUBLIC	?__autoclassinit2@?$unique_ptr@V_Facet_base@std@@U?$default_delete@V_Facet_base@std@@@2@@std@@QEAAX_K@Z ; std::unique_ptr<std::_Facet_base,std::default_delete<std::_Facet_base> >::__autoclassinit2
PUBLIC	??$?0U?$default_delete@V_Facet_base@std@@@std@@$0A@@?$unique_ptr@V_Facet_base@std@@U?$default_delete@V_Facet_base@std@@@2@@std@@QEAA@PEAV_Facet_base@1@@Z ; std::unique_ptr<std::_Facet_base,std::default_delete<std::_Facet_base> >::unique_ptr<std::_Facet_base,std::default_delete<std::_Facet_base> ><std::default_delete<std::_Facet_base>,0>
PUBLIC	??$move@AEAV?$basic_istream@_WU?$char_traits@_W@std@@@std@@@std@@YA$$QEAV?$basic_istream@_WU?$char_traits@_W@std@@@0@AEAV10@@Z ; std::move<std::basic_istream<wchar_t,std::char_traits<wchar_t> > &>
PUBLIC	??0_Sentry_base@?$basic_istream@_WU?$char_traits@_W@std@@@std@@QEAA@AEAV12@@Z ; std::basic_istream<wchar_t,std::char_traits<wchar_t> >::_Sentry_base::_Sentry_base
PUBLIC	??1_Sentry_base@?$basic_istream@_WU?$char_traits@_W@std@@@std@@QEAA@XZ ; std::basic_istream<wchar_t,std::char_traits<wchar_t> >::_Sentry_base::~_Sentry_base
PUBLIC	??0sentry@?$basic_istream@_WU?$char_traits@_W@std@@@std@@QEAA@AEAV12@_N@Z ; std::basic_istream<wchar_t,std::char_traits<wchar_t> >::sentry::sentry
PUBLIC	??Bsentry@?$basic_istream@_WU?$char_traits@_W@std@@@std@@QEBA_NXZ ; std::basic_istream<wchar_t,std::char_traits<wchar_t> >::sentry::operator bool
PUBLIC	??1sentry@?$basic_istream@_WU?$char_traits@_W@std@@@std@@QEAA@XZ ; std::basic_istream<wchar_t,std::char_traits<wchar_t> >::sentry::~sentry
PUBLIC	??$_Deallocate_plain@V?$allocator@U_Container_proxy@std@@@std@@@std@@YAXAEAV?$allocator@U_Container_proxy@std@@@0@QEAU_Container_proxy@0@@Z ; std::_Deallocate_plain<std::allocator<std::_Container_proxy> >
PUBLIC	??$addressof@PEA_W@std@@YAPEAPEA_WAEAPEA_W@Z	; std::addressof<wchar_t *>
PUBLIC	??$_Voidify_iter@PEAPEA_W@std@@YAPEAXPEAPEA_W@Z	; std::_Voidify_iter<wchar_t * *>
PUBLIC	??$_Allocate_manually_vector_aligned@U_Default_allocate_traits@std@@@std@@YAPEAX_K@Z ; std::_Allocate_manually_vector_aligned<std::_Default_allocate_traits>
PUBLIC	??$forward@AEBQEA_W@std@@YAAEBQEA_WAEBQEA_W@Z	; std::forward<wchar_t * const &>
PUBLIC	??$exchange@PEAV_Facet_base@std@@$$T@std@@YAPEAV_Facet_base@0@AEAPEAV10@$$QEA$$T@Z ; std::exchange<std::_Facet_base *,std::nullptr_t>
PUBLIC	??$_Traits_equal@U?$char_traits@_W@std@@@std@@YA_NQEB_W_K01@Z ; std::_Traits_equal<std::char_traits<wchar_t> >
PUBLIC	??$?0AEAPEAV_Facet_base@std@@@?$_Compressed_pair@U?$default_delete@V_Facet_base@std@@@std@@PEAV_Facet_base@2@$00@std@@QEAA@U_Zero_then_variadic_args_t@1@AEAPEAV_Facet_base@1@@Z ; std::_Compressed_pair<std::default_delete<std::_Facet_base>,std::_Facet_base *,1>::_Compressed_pair<std::default_delete<std::_Facet_base>,std::_Facet_base *,1><std::_Facet_base * &>
PUBLIC	?deallocate@?$_Default_allocator_traits@V?$allocator@U_Container_proxy@std@@@std@@@std@@SAXAEAV?$allocator@U_Container_proxy@std@@@2@QEAU_Container_proxy@2@_K@Z ; std::_Default_allocator_traits<std::allocator<std::_Container_proxy> >::deallocate
PUBLIC	??$forward@AEAPEAV_Facet_base@std@@@std@@YAAEAPEAV_Facet_base@0@AEAPEAV10@@Z ; std::forward<std::_Facet_base * &>
PUBLIC	??_7exception@std@@6B@				; std::exception::`vftable'
PUBLIC	??_C@_0BC@EOODALEL@Unknown?5exception@		; `string'
PUBLIC	??_7bad_alloc@std@@6B@				; std::bad_alloc::`vftable'
PUBLIC	??_7bad_array_new_length@std@@6B@		; std::bad_array_new_length::`vftable'
PUBLIC	??_C@_0BF@KINCDENJ@bad?5array?5new?5length@	; `string'
PUBLIC	_TI3?AVbad_array_new_length@std@@
PUBLIC	_CTA3?AVbad_array_new_length@std@@
PUBLIC	??_R0?AVbad_array_new_length@std@@@8		; std::bad_array_new_length `RTTI Type Descriptor'
PUBLIC	_CT??_R0?AVbad_array_new_length@std@@@8??0bad_array_new_length@std@@QEAA@AEBV01@@Z24
PUBLIC	??_R0?AVbad_alloc@std@@@8			; std::bad_alloc `RTTI Type Descriptor'
PUBLIC	_CT??_R0?AVbad_alloc@std@@@8??0bad_alloc@std@@QEAA@AEBV01@@Z24
PUBLIC	??_R0?AVexception@std@@@8			; std::exception `RTTI Type Descriptor'
PUBLIC	_CT??_R0?AVexception@std@@@8??0exception@std@@QEAA@AEBV01@@Z24
PUBLIC	??_C@_0BB@FCMFBGOM@invalid?5argument@		; `string'
PUBLIC	??_C@_02DKCKIIND@?$CFs@				; `string'
PUBLIC	??_C@_0GI@MNEMJBML@C?3?2Program?5Files?5?$CIx86?$CJ?2Microsof@ ; `string'
PUBLIC	??_C@_1NA@MJBOBEJL@?$AAC?$AA?3?$AA?2?$AAP?$AAr?$AAo?$AAg?$AAr?$AAa?$AAm?$AA?5?$AAF?$AAi?$AAl?$AAe@ ; `string'
PUBLIC	??_C@_11LOCGONAA@@				; `string'
PUBLIC	??_C@_1CG@JNLFBNGN@?$AA?$CC?$AAi?$AAn?$AAv?$AAa?$AAl?$AAi?$AAd?$AA?5?$AAa?$AAr?$AAg?$AAu?$AAm?$AAe@ ; `string'
PUBLIC	??_C@_0BA@JFNIOLAK@string?5too?5long@		; `string'
PUBLIC	??_7bad_cast@std@@6B@				; std::bad_cast::`vftable'
PUBLIC	??_C@_08EPJLHIJG@bad?5cast@			; `string'
PUBLIC	_TI2?AVbad_cast@std@@
PUBLIC	_CTA2?AVbad_cast@std@@
PUBLIC	??_R0?AVbad_cast@std@@@8			; std::bad_cast `RTTI Type Descriptor'
PUBLIC	_CT??_R0?AVbad_cast@std@@@8??0bad_cast@std@@QEAA@AEBV01@@Z24
PUBLIC	??_C@_0GI@GFIAKDGM@C?3?2Program?5Files?5?$CIx86?$CJ?2Microsof@ ; `string'
PUBLIC	??_C@_0GI@OGMNKBMN@C?3?2Program?5Files?5?$CIx86?$CJ?2Microsof@ ; `string'
PUBLIC	??_C@_0N@LPFKKEBD@?3AM?3am?3PM?3pm@		; `string'
PUBLIC	??_C@_0BI@CFPLBAOH@invalid?5string?5position@	; `string'
PUBLIC	??_C@_1BK@MHIKGOKE@?$AA?3?$AAA?$AAM?$AA?3?$AAa?$AAm?$AA?3?$AAP?$AAM?$AA?3?$AAp?$AAm@ ; `string'
PUBLIC	?_Psave@?$_Facetptr@V?$ctype@_W@std@@@std@@2PEBVfacet@locale@2@EB ; std::_Facetptr<std::ctype<wchar_t> >::_Psave
PUBLIC	??_R4exception@std@@6B@				; std::exception::`RTTI Complete Object Locator'
PUBLIC	??_R3exception@std@@8				; std::exception::`RTTI Class Hierarchy Descriptor'
PUBLIC	??_R2exception@std@@8				; std::exception::`RTTI Base Class Array'
PUBLIC	??_R1A@?0A@EA@exception@std@@8			; std::exception::`RTTI Base Class Descriptor at (0,-1,0,64)'
PUBLIC	??_R4bad_alloc@std@@6B@				; std::bad_alloc::`RTTI Complete Object Locator'
PUBLIC	??_R3bad_alloc@std@@8				; std::bad_alloc::`RTTI Class Hierarchy Descriptor'
PUBLIC	??_R2bad_alloc@std@@8				; std::bad_alloc::`RTTI Base Class Array'
PUBLIC	??_R1A@?0A@EA@bad_alloc@std@@8			; std::bad_alloc::`RTTI Base Class Descriptor at (0,-1,0,64)'
PUBLIC	??_R4bad_array_new_length@std@@6B@		; std::bad_array_new_length::`RTTI Complete Object Locator'
PUBLIC	??_R3bad_array_new_length@std@@8		; std::bad_array_new_length::`RTTI Class Hierarchy Descriptor'
PUBLIC	??_R2bad_array_new_length@std@@8		; std::bad_array_new_length::`RTTI Base Class Array'
PUBLIC	??_R1A@?0A@EA@bad_array_new_length@std@@8	; std::bad_array_new_length::`RTTI Base Class Descriptor at (0,-1,0,64)'
PUBLIC	??_R4bad_cast@std@@6B@				; std::bad_cast::`RTTI Complete Object Locator'
PUBLIC	??_R3bad_cast@std@@8				; std::bad_cast::`RTTI Class Hierarchy Descriptor'
PUBLIC	??_R2bad_cast@std@@8				; std::bad_cast::`RTTI Base Class Array'
PUBLIC	??_R1A@?0A@EA@bad_cast@std@@8			; std::bad_cast::`RTTI Base Class Descriptor at (0,-1,0,64)'
PUBLIC	__real@0000000000000000
PUBLIC	__real@c000000000000000
PUBLIC	__real@c008000000000000
PUBLIC	__real@c010000000000000
EXTRN	??2@YAPEAX_K@Z:PROC				; operator new
EXTRN	??3@YAXPEAX_K@Z:PROC				; operator delete
EXTRN	__imp__invalid_parameter:PROC
EXTRN	__imp__calloc_dbg:PROC
EXTRN	__imp__CrtDbgReport:PROC
EXTRN	__imp_??0_Lockit@std@@QEAA@H@Z:PROC
EXTRN	__imp_??1_Lockit@std@@QEAA@XZ:PROC
EXTRN	__imp___acrt_iob_func:PROC
EXTRN	__imp_fclose:PROC
EXTRN	__imp_fflush:PROC
EXTRN	__imp__fileno:PROC
EXTRN	__imp_fread:PROC
EXTRN	__imp__fsopen:PROC
EXTRN	__imp_fwrite:PROC
EXTRN	memcpy:PROC
EXTRN	__imp_wcslen:PROC
EXTRN	strlen:PROC
EXTRN	?_Xbad_alloc@std@@YAXXZ:PROC			; std::_Xbad_alloc
EXTRN	?_Xlength_error@std@@YAXPEBD@Z:PROC		; std::_Xlength_error
EXTRN	?_Xout_of_range@std@@YAXPEBD@Z:PROC		; std::_Xout_of_range
EXTRN	?uncaught_exception@std@@YA_NXZ:PROC		; std::uncaught_exception
EXTRN	__std_exception_copy:PROC
EXTRN	__std_exception_destroy:PROC
EXTRN	??_Eexception@std@@UEAAPEAXI@Z:PROC		; std::exception::`vector deleting destructor'
EXTRN	??_Ebad_alloc@std@@UEAAPEAXI@Z:PROC		; std::bad_alloc::`vector deleting destructor'
EXTRN	??_Ebad_array_new_length@std@@UEAAPEAXI@Z:PROC	; std::bad_array_new_length::`vector deleting destructor'
EXTRN	??_Ebad_cast@std@@UEAAPEAXI@Z:PROC		; std::bad_cast::`vector deleting destructor'
EXTRN	?_Facet_Register@std@@YAXPEAV_Facet_base@1@@Z:PROC ; std::_Facet_Register
EXTRN	_Mbrtowc:PROC
EXTRN	__imp_?_Getcvt@_Locinfo@std@@QEBA?AU_Cvtvec@@XZ:PROC
EXTRN	__imp_?_Getdays@_Locinfo@std@@QEBAPEBDXZ:PROC
EXTRN	__imp_?_Getmonths@_Locinfo@std@@QEBAPEBDXZ:PROC
EXTRN	__imp_?_W_Getdays@_Locinfo@std@@QEBAPEBGXZ:PROC
EXTRN	__imp_?_W_Getmonths@_Locinfo@std@@QEBAPEBGXZ:PROC
EXTRN	__imp_??Bid@locale@std@@QEAA_KXZ:PROC
EXTRN	?_Getgloballocale@locale@std@@CAPEAV_Locimp@12@XZ:PROC ; std::locale::_Getgloballocale
EXTRN	__imp_?is@?$ctype@_W@std@@QEBA_NF_W@Z:PROC
EXTRN	__imp_?_Getcat@?$ctype@_W@std@@SA_KPEAPEBVfacet@locale@2@PEBV42@@Z:PROC
EXTRN	__imp_?good@ios_base@std@@QEBA_NXZ:PROC
EXTRN	__imp_?flags@ios_base@std@@QEBAHXZ:PROC
EXTRN	__imp_?width@ios_base@std@@QEBA_JXZ:PROC
EXTRN	__imp_?width@ios_base@std@@QEAA_J_J@Z:PROC
EXTRN	__imp_?getloc@ios_base@std@@QEBA?AVlocale@2@XZ:PROC
EXTRN	__imp_?sgetc@?$basic_streambuf@_WU?$char_traits@_W@std@@@std@@QEAAGXZ:PROC
EXTRN	__imp_?snextc@?$basic_streambuf@_WU?$char_traits@_W@std@@@std@@QEAAGXZ:PROC
EXTRN	__imp_?sputc@?$basic_streambuf@_WU?$char_traits@_W@std@@@std@@QEAAG_W@Z:PROC
EXTRN	__imp_?sputn@?$basic_streambuf@_WU?$char_traits@_W@std@@@std@@QEAA_JPEB_W_J@Z:PROC
EXTRN	__imp_?setstate@?$basic_ios@_WU?$char_traits@_W@std@@@std@@QEAAXH_N@Z:PROC
EXTRN	__imp_?tie@?$basic_ios@_WU?$char_traits@_W@std@@@std@@QEBAPEAV?$basic_ostream@_WU?$char_traits@_W@std@@@2@XZ:PROC
EXTRN	__imp_?rdbuf@?$basic_ios@_WU?$char_traits@_W@std@@@std@@QEBAPEAV?$basic_streambuf@_WU?$char_traits@_W@std@@@2@XZ:PROC
EXTRN	__imp_?fill@?$basic_ios@_WU?$char_traits@_W@std@@@std@@QEBA_WXZ:PROC
EXTRN	__imp_?widen@?$basic_ios@_WU?$char_traits@_W@std@@@std@@QEBA_WD@Z:PROC
EXTRN	__imp_?_Osfx@?$basic_ostream@_WU?$char_traits@_W@std@@@std@@QEAAXXZ:PROC
EXTRN	__imp_??6?$basic_ostream@_WU?$char_traits@_W@std@@@std@@QEAAAEAV01@P6AAEAV01@AEAV01@@Z@Z:PROC
EXTRN	__imp_??6?$basic_ostream@_WU?$char_traits@_W@std@@@std@@QEAAAEAV01@N@Z:PROC
EXTRN	__imp_?put@?$basic_ostream@_WU?$char_traits@_W@std@@@std@@QEAAAEAV12@_W@Z:PROC
EXTRN	__imp_?flush@?$basic_ostream@_WU?$char_traits@_W@std@@@std@@QEAAAEAV12@XZ:PROC
EXTRN	__imp_?_Ipfx@?$basic_istream@_WU?$char_traits@_W@std@@@std@@QEAA_N_N@Z:PROC
EXTRN	__imp_??5?$basic_istream@_WU?$char_traits@_W@std@@@std@@QEAAAEAV01@AEAH@Z:PROC
EXTRN	__imp_??5?$basic_istream@_WU?$char_traits@_W@std@@@std@@QEAAAEAV01@AEAN@Z:PROC
EXTRN	__imp__setmode:PROC
EXTRN	_CxxThrowException:PROC
EXTRN	_RTC_CheckStackVars:PROC
EXTRN	_RTC_InitBase:PROC
EXTRN	_RTC_Shutdown:PROC
EXTRN	__CxxFrameHandler4:PROC
EXTRN	__GSHandlerCheck:PROC
EXTRN	__GSHandlerCheck_EH4:PROC
EXTRN	__security_check_cookie:PROC
EXTRN	??_7type_info@@6B@:BYTE				; type_info::`vftable'
EXTRN	__imp_?id@?$ctype@_W@std@@2V0locale@2@A:QWORD
EXTRN	__imp_?wcin@std@@3V?$basic_istream@_WU?$char_traits@_W@std@@@1@A:BYTE
EXTRN	__imp_?wcout@std@@3V?$basic_ostream@_WU?$char_traits@_W@std@@@1@A:BYTE
EXTRN	__security_cookie:QWORD
EXTRN	_fltused:DWORD
;	COMDAT ?_Psave@?$_Facetptr@V?$ctype@_W@std@@@std@@2PEBVfacet@locale@2@EB
_BSS	SEGMENT
?_Psave@?$_Facetptr@V?$ctype@_W@std@@@std@@2PEBVfacet@locale@2@EB DQ 01H DUP (?) ; std::_Facetptr<std::ctype<wchar_t> >::_Psave
_BSS	ENDS
;	COMDAT pdata
pdata	SEGMENT
$pdata$?__empty_global_delete@@YAXPEAX@Z DD imagerel $LN3
	DD	imagerel $LN3+8
	DD	imagerel $unwind$?__empty_global_delete@@YAXPEAX@Z
pdata	ENDS
;	COMDAT pdata
pdata	SEGMENT
$pdata$?__empty_global_delete@@YAXPEAX_K@Z DD imagerel $LN3
	DD	imagerel $LN3+13
	DD	imagerel $unwind$?__empty_global_delete@@YAXPEAX_K@Z
pdata	ENDS
;	COMDAT pdata
pdata	SEGMENT
$pdata$??2@YAPEAX_KPEAX@Z DD imagerel $LN3
	DD	imagerel $LN3+18
	DD	imagerel $unwind$??2@YAPEAX_KPEAX@Z
pdata	ENDS
;	COMDAT pdata
pdata	SEGMENT
$pdata$wmemcmp DD imagerel $LN9
	DD	imagerel $LN9+142
	DD	imagerel $unwind$wmemcmp
pdata	ENDS
;	COMDAT pdata
pdata	SEGMENT
$pdata$wmemcpy DD imagerel $LN3
	DD	imagerel $LN3+52
	DD	imagerel $unwind$wmemcpy
pdata	ENDS
;	COMDAT pdata
pdata	SEGMENT
$pdata$??0exception@std@@QEAA@QEBDH@Z DD imagerel $LN3
	DD	imagerel $LN3+73
	DD	imagerel $unwind$??0exception@std@@QEAA@QEBDH@Z
pdata	ENDS
;	COMDAT pdata
pdata	SEGMENT
$pdata$??0exception@std@@QEAA@AEBV01@@Z DD imagerel $LN3
	DD	imagerel $LN3+88
	DD	imagerel $unwind$??0exception@std@@QEAA@AEBV01@@Z
pdata	ENDS
;	COMDAT pdata
pdata	SEGMENT
$pdata$??1exception@std@@UEAA@XZ DD imagerel $LN3
	DD	imagerel $LN3+48
	DD	imagerel $unwind$??1exception@std@@UEAA@XZ
pdata	ENDS
;	COMDAT pdata
pdata	SEGMENT
$pdata$?what@exception@std@@UEBAPEBDXZ DD imagerel $LN5
	DD	imagerel $LN5+58
	DD	imagerel $unwind$?what@exception@std@@UEBAPEBDXZ
pdata	ENDS
;	COMDAT pdata
pdata	SEGMENT
$pdata$??_Gexception@std@@UEAAPEAXI@Z DD imagerel $LN4
	DD	imagerel $LN4+61
	DD	imagerel $unwind$??_Gexception@std@@UEAAPEAXI@Z
pdata	ENDS
;	COMDAT pdata
pdata	SEGMENT
$pdata$??0bad_alloc@std@@AEAA@QEBD@Z DD imagerel $LN3
	DD	imagerel $LN3+62
	DD	imagerel $unwind$??0bad_alloc@std@@AEAA@QEBD@Z
pdata	ENDS
;	COMDAT pdata
pdata	SEGMENT
$pdata$??1bad_alloc@std@@UEAA@XZ DD imagerel $LN3
	DD	imagerel $LN3+26
	DD	imagerel $unwind$??1bad_alloc@std@@UEAA@XZ
pdata	ENDS
;	COMDAT pdata
pdata	SEGMENT
$pdata$??0bad_alloc@std@@QEAA@AEBV01@@Z DD imagerel $LN3
	DD	imagerel $LN3+56
	DD	imagerel $unwind$??0bad_alloc@std@@QEAA@AEBV01@@Z
pdata	ENDS
;	COMDAT pdata
pdata	SEGMENT
$pdata$??_Gbad_alloc@std@@UEAAPEAXI@Z DD imagerel $LN4
	DD	imagerel $LN4+61
	DD	imagerel $unwind$??_Gbad_alloc@std@@UEAAPEAXI@Z
pdata	ENDS
;	COMDAT pdata
pdata	SEGMENT
$pdata$??0bad_array_new_length@std@@QEAA@XZ DD imagerel $LN3
	DD	imagerel $LN3+53
	DD	imagerel $unwind$??0bad_array_new_length@std@@QEAA@XZ
pdata	ENDS
;	COMDAT pdata
pdata	SEGMENT
$pdata$??1bad_array_new_length@std@@UEAA@XZ DD imagerel $LN3
	DD	imagerel $LN3+26
	DD	imagerel $unwind$??1bad_array_new_length@std@@UEAA@XZ
pdata	ENDS
;	COMDAT pdata
pdata	SEGMENT
$pdata$??0bad_array_new_length@std@@QEAA@AEBV01@@Z DD imagerel $LN3
	DD	imagerel $LN3+56
	DD	imagerel $unwind$??0bad_array_new_length@std@@QEAA@AEBV01@@Z
pdata	ENDS
;	COMDAT pdata
pdata	SEGMENT
$pdata$??_Gbad_array_new_length@std@@UEAAPEAXI@Z DD imagerel $LN4
	DD	imagerel $LN4+61
	DD	imagerel $unwind$??_Gbad_array_new_length@std@@UEAAPEAXI@Z
pdata	ENDS
;	COMDAT pdata
pdata	SEGMENT
$pdata$?_Throw_bad_array_new_length@std@@YAXXZ DD imagerel $LN3
	DD	imagerel $LN3+39
	DD	imagerel $unwind$?_Throw_bad_array_new_length@std@@YAXXZ
pdata	ENDS
;	COMDAT pdata
pdata	SEGMENT
$pdata$?max@?$numeric_limits@_J@std@@SA_JXZ DD imagerel $LN3
	DD	imagerel $LN3+14
	DD	imagerel $unwind$?max@?$numeric_limits@_J@std@@SA_JXZ
pdata	ENDS
;	COMDAT pdata
pdata	SEGMENT
$pdata$?_Allocate@_Default_allocate_traits@std@@SAPEAX_K@Z DD imagerel $LN3
	DD	imagerel $LN3+26
	DD	imagerel $unwind$?_Allocate@_Default_allocate_traits@std@@SAPEAX_K@Z
pdata	ENDS
;	COMDAT pdata
pdata	SEGMENT
$pdata$?_Adjust_manually_vector_aligned@std@@YAXAEAPEAXAEA_K@Z DD imagerel $LN21
	DD	imagerel $LN21+404
	DD	imagerel $unwind$?_Adjust_manually_vector_aligned@std@@YAXAEAPEAXAEA_K@Z
pdata	ENDS
;	COMDAT pdata
pdata	SEGMENT
$pdata$??0_Container_proxy@std@@QEAA@PEAU_Container_base12@1@@Z DD imagerel $LN3
	DD	imagerel $LN3+44
	DD	imagerel $unwind$??0_Container_proxy@std@@QEAA@PEAU_Container_base12@1@@Z
pdata	ENDS
;	COMDAT pdata
pdata	SEGMENT
$pdata$??0_Container_base12@std@@QEAA@XZ DD imagerel $LN3
	DD	imagerel $LN3+25
	DD	imagerel $unwind$??0_Container_base12@std@@QEAA@XZ
pdata	ENDS
;	COMDAT pdata
pdata	SEGMENT
$pdata$?_Orphan_all@_Container_base12@std@@QEAAXXZ DD imagerel $LN3
	DD	imagerel $LN3+26
	DD	imagerel $unwind$?_Orphan_all@_Container_base12@std@@QEAAXXZ
pdata	ENDS
;	COMDAT pdata
pdata	SEGMENT
$pdata$?_Orphan_all_unlocked_v3@_Container_base12@std@@AEAAXXZ DD imagerel $LN7
	DD	imagerel $LN7+107
	DD	imagerel $unwind$?_Orphan_all_unlocked_v3@_Container_base12@std@@AEAAXXZ
pdata	ENDS
;	COMDAT pdata
pdata	SEGMENT
$pdata$?_Orphan_all_locked_v3@_Container_base12@std@@AEAAXXZ DD imagerel $LN3
	DD	imagerel $LN3+118
	DD	imagerel $unwind$?_Orphan_all_locked_v3@_Container_base12@std@@AEAAXXZ
pdata	ENDS
;	COMDAT pdata
pdata	SEGMENT
$pdata$??$_Construct_in_place@U_Container_proxy@std@@PEAU_Container_base12@2@@std@@YAXAEAU_Container_proxy@0@$$QEAPEAU_Container_base12@0@@Z DD imagerel $LN3
	DD	imagerel $LN3+80
	DD	imagerel $unwind$??$_Construct_in_place@U_Container_proxy@std@@PEAU_Container_base12@2@@std@@YAXAEAU_Container_proxy@0@$$QEAPEAU_Container_base12@0@@Z
pdata	ENDS
;	COMDAT pdata
pdata	SEGMENT
$pdata$?copy@?$_Char_traits@_WG@std@@SAPEA_WQEA_WQEB_W_K@Z DD imagerel $LN3
	DD	imagerel $LN3+57
	DD	imagerel $unwind$?copy@?$_Char_traits@_WG@std@@SAPEA_WQEA_WQEB_W_K@Z
pdata	ENDS
;	COMDAT pdata
pdata	SEGMENT
$pdata$?compare@?$_WChar_traits@_W@std@@SAHQEB_W0_K@Z DD imagerel $LN3
	DD	imagerel $LN3+46
	DD	imagerel $unwind$?compare@?$_WChar_traits@_W@std@@SAHQEB_W0_K@Z
pdata	ENDS
;	COMDAT pdata
pdata	SEGMENT
$pdata$?length@?$_WChar_traits@_W@std@@SA_KPEB_W@Z DD imagerel $LN3
	DD	imagerel $LN3+27
	DD	imagerel $unwind$?length@?$_WChar_traits@_W@std@@SA_KPEB_W@Z
pdata	ENDS
;	COMDAT pdata
pdata	SEGMENT
$pdata$?assign@?$_WChar_traits@_W@std@@SAXAEA_WAEB_W@Z DD imagerel $LN3
	DD	imagerel $LN3+29
	DD	imagerel $unwind$?assign@?$_WChar_traits@_W@std@@SAXAEA_WAEB_W@Z
pdata	ENDS
;	COMDAT pdata
pdata	SEGMENT
$pdata$?to_char_type@?$_WChar_traits@_W@std@@SA_WAEBG@Z DD imagerel $LN3
	DD	imagerel $LN3+16
	DD	imagerel $unwind$?to_char_type@?$_WChar_traits@_W@std@@SA_WAEBG@Z
pdata	ENDS
;	COMDAT pdata
pdata	SEGMENT
$pdata$?eq_int_type@?$_WChar_traits@_W@std@@SA_NAEBG0@Z DD imagerel $LN5
	DD	imagerel $LN5+61
	DD	imagerel $unwind$?eq_int_type@?$_WChar_traits@_W@std@@SA_NAEBG0@Z
pdata	ENDS
;	COMDAT pdata
pdata	SEGMENT
$pdata$?eof@?$_WChar_traits@_W@std@@SAGXZ DD imagerel $LN3
	DD	imagerel $LN3+9
	DD	imagerel $unwind$?eof@?$_WChar_traits@_W@std@@SAGXZ
pdata	ENDS
;	COMDAT pdata
pdata	SEGMENT
$pdata$?_Xlen_string@std@@YAXXZ DD imagerel $LN3
	DD	imagerel $LN3+24
	DD	imagerel $unwind$?_Xlen_string@std@@YAXXZ
pdata	ENDS
;	COMDAT pdata
pdata	SEGMENT
$pdata$??0?$allocator@_W@std@@QEAA@XZ DD imagerel $LN3
	DD	imagerel $LN3+13
	DD	imagerel $unwind$??0?$allocator@_W@std@@QEAA@XZ
pdata	ENDS
;	COMDAT pdata
pdata	SEGMENT
$pdata$?deallocate@?$allocator@_W@std@@QEAAXQEA_W_K@Z DD imagerel $LN3
	DD	imagerel $LN3+47
	DD	imagerel $unwind$?deallocate@?$allocator@_W@std@@QEAAXQEA_W_K@Z
pdata	ENDS
;	COMDAT pdata
pdata	SEGMENT
$pdata$?allocate@?$allocator@_W@std@@QEAAPEA_W_K@Z DD imagerel $LN3
	DD	imagerel $LN3+39
	DD	imagerel $unwind$?allocate@?$allocator@_W@std@@QEAAPEA_W_K@Z
pdata	ENDS
;	COMDAT pdata
pdata	SEGMENT
$pdata$?max_size@?$_Default_allocator_traits@V?$allocator@_W@std@@@std@@SA_KAEBV?$allocator@_W@2@@Z DD imagerel $LN3
	DD	imagerel $LN3+18
	DD	imagerel $unwind$?max_size@?$_Default_allocator_traits@V?$allocator@_W@std@@@std@@SA_KAEBV?$allocator@_W@2@@Z
pdata	ENDS
;	COMDAT pdata
pdata	SEGMENT
$pdata$??0?$_String_val@U?$_Simple_types@_W@std@@@std@@QEAA@XZ DD imagerel $LN3
	DD	imagerel $LN3+74
	DD	imagerel $unwind$??0?$_String_val@U?$_Simple_types@_W@std@@@std@@QEAA@XZ
pdata	ENDS
;	COMDAT pdata
pdata	SEGMENT
$pdata$?_Myptr@?$_String_val@U?$_Simple_types@_W@std@@@std@@QEAAPEA_WXZ DD imagerel $LN4
	DD	imagerel $LN4+71
	DD	imagerel $unwind$?_Myptr@?$_String_val@U?$_Simple_types@_W@std@@@std@@QEAAPEA_WXZ
pdata	ENDS
;	COMDAT pdata
pdata	SEGMENT
$pdata$?_Myptr@?$_String_val@U?$_Simple_types@_W@std@@@std@@QEBAPEB_WXZ DD imagerel $LN4
	DD	imagerel $LN4+71
	DD	imagerel $unwind$?_Myptr@?$_String_val@U?$_Simple_types@_W@std@@@std@@QEBAPEB_WXZ
pdata	ENDS
;	COMDAT pdata
pdata	SEGMENT
$pdata$?_Large_string_engaged@?$_String_val@U?$_Simple_types@_W@std@@@std@@QEBA_NXZ DD imagerel $LN5
	DD	imagerel $LN5+48
	DD	imagerel $unwind$?_Large_string_engaged@?$_String_val@U?$_Simple_types@_W@std@@@std@@QEBA_NXZ
pdata	ENDS
;	COMDAT pdata
pdata	SEGMENT
$pdata$?_Check_offset@?$_String_val@U?$_Simple_types@_W@std@@@std@@QEBAX_K@Z DD imagerel $LN4
	DD	imagerel $LN4+42
	DD	imagerel $unwind$?_Check_offset@?$_String_val@U?$_Simple_types@_W@std@@@std@@QEBAX_K@Z
pdata	ENDS
;	COMDAT pdata
pdata	SEGMENT
$pdata$?_Xran@?$_String_val@U?$_Simple_types@_W@std@@@std@@SAXXZ DD imagerel $LN3
	DD	imagerel $LN3+24
	DD	imagerel $unwind$?_Xran@?$_String_val@U?$_Simple_types@_W@std@@@std@@SAXXZ
pdata	ENDS
;	COMDAT pdata
pdata	SEGMENT
$pdata$??0_Bxty@?$_String_val@U?$_Simple_types@_W@std@@@std@@QEAA@XZ DD imagerel $LN3
	DD	imagerel $LN3+25
	DD	imagerel $unwind$??0_Bxty@?$_String_val@U?$_Simple_types@_W@std@@@std@@QEAA@XZ
pdata	ENDS
;	COMDAT pdata
pdata	SEGMENT
$pdata$??1_Bxty@?$_String_val@U?$_Simple_types@_W@std@@@std@@QEAA@XZ DD imagerel $LN3
	DD	imagerel $LN3+8
	DD	imagerel $unwind$??1_Bxty@?$_String_val@U?$_Simple_types@_W@std@@@std@@QEAA@XZ
pdata	ENDS
;	COMDAT pdata
pdata	SEGMENT
$pdata$??1?$_String_val@U?$_Simple_types@_W@std@@@std@@QEAA@XZ DD imagerel $LN3
	DD	imagerel $LN3+33
	DD	imagerel $unwind$??1?$_String_val@U?$_Simple_types@_W@std@@@std@@QEAA@XZ
pdata	ENDS
;	COMDAT pdata
pdata	SEGMENT
$pdata$??0?$basic_string@_WU?$char_traits@_W@std@@V?$allocator@_W@2@@std@@QEAA@XZ DD imagerel $LN3
	DD	imagerel $LN3+85
	DD	imagerel $unwind$??0?$basic_string@_WU?$char_traits@_W@std@@V?$allocator@_W@2@@std@@QEAA@XZ
pdata	ENDS
;	COMDAT pdata
pdata	SEGMENT
$pdata$??1?$basic_string@_WU?$char_traits@_W@std@@V?$allocator@_W@2@@std@@QEAA@XZ DD imagerel $LN3
	DD	imagerel $LN3+177
	DD	imagerel $unwind$??1?$basic_string@_WU?$char_traits@_W@std@@V?$allocator@_W@2@@std@@QEAA@XZ
pdata	ENDS
;	COMDAT pdata
pdata	SEGMENT
$pdata$?erase@?$basic_string@_WU?$char_traits@_W@std@@V?$allocator@_W@2@@std@@QEAAAEAV12@_K@Z DD imagerel $LN3
	DD	imagerel $LN3+59
	DD	imagerel $unwind$?erase@?$basic_string@_WU?$char_traits@_W@std@@V?$allocator@_W@2@@std@@QEAAAEAV12@_K@Z
pdata	ENDS
;	COMDAT pdata
pdata	SEGMENT
$pdata$?push_back@?$basic_string@_WU?$char_traits@_W@std@@V?$allocator@_W@2@@std@@QEAAX_W@Z DD imagerel $LN4
	DD	imagerel $LN4+194
	DD	imagerel $unwind$?push_back@?$basic_string@_WU?$char_traits@_W@std@@V?$allocator@_W@2@@std@@QEAAX_W@Z
pdata	ENDS
;	COMDAT pdata
pdata	SEGMENT
$pdata$?max_size@?$basic_string@_WU?$char_traits@_W@std@@V?$allocator@_W@2@@std@@QEBA_KXZ DD imagerel $LN3
	DD	imagerel $LN3+189
	DD	imagerel $unwind$?max_size@?$basic_string@_WU?$char_traits@_W@std@@V?$allocator@_W@2@@std@@QEBA_KXZ
pdata	ENDS
;	COMDAT pdata
pdata	SEGMENT
$pdata$?_Equal@?$basic_string@_WU?$char_traits@_W@std@@V?$allocator@_W@2@@std@@QEBA_NQEB_W@Z DD imagerel $LN3
	DD	imagerel $LN3+76
	DD	imagerel $unwind$?_Equal@?$basic_string@_WU?$char_traits@_W@std@@V?$allocator@_W@2@@std@@QEBA_NQEB_W@Z
pdata	ENDS
;	COMDAT pdata
pdata	SEGMENT
$pdata$?_Calculate_growth@?$basic_string@_WU?$char_traits@_W@std@@V?$allocator@_W@2@@std@@CA_K_K00@Z DD imagerel $LN5
	DD	imagerel $LN5+219
	DD	imagerel $unwind$?_Calculate_growth@?$basic_string@_WU?$char_traits@_W@std@@V?$allocator@_W@2@@std@@CA_K_K00@Z
pdata	ENDS
;	COMDAT pdata
pdata	SEGMENT
$pdata$?_Calculate_growth@?$basic_string@_WU?$char_traits@_W@std@@V?$allocator@_W@2@@std@@AEBA_K_K@Z DD imagerel $LN3
	DD	imagerel $LN3+53
	DD	imagerel $unwind$?_Calculate_growth@?$basic_string@_WU?$char_traits@_W@std@@V?$allocator@_W@2@@std@@AEBA_K_K@Z
pdata	ENDS
;	COMDAT pdata
pdata	SEGMENT
$pdata$?_Eos@?$basic_string@_WU?$char_traits@_W@std@@V?$allocator@_W@2@@std@@AEAAX_K@Z DD imagerel $LN3
	DD	imagerel $LN3+77
	DD	imagerel $unwind$?_Eos@?$basic_string@_WU?$char_traits@_W@std@@V?$allocator@_W@2@@std@@AEAAX_K@Z
pdata	ENDS
;	COMDAT pdata
pdata	SEGMENT
$pdata$?_Tidy_init@?$basic_string@_WU?$char_traits@_W@std@@V?$allocator@_W@2@@std@@AEAAXXZ DD imagerel $LN3
	DD	imagerel $LN3+91
	DD	imagerel $unwind$?_Tidy_init@?$basic_string@_WU?$char_traits@_W@std@@V?$allocator@_W@2@@std@@AEAAXXZ
pdata	ENDS
;	COMDAT pdata
pdata	SEGMENT
$pdata$?_Tidy_deallocate@?$basic_string@_WU?$char_traits@_W@std@@V?$allocator@_W@2@@std@@AEAAXXZ DD imagerel $LN4
	DD	imagerel $LN4+191
	DD	imagerel $unwind$?_Tidy_deallocate@?$basic_string@_WU?$char_traits@_W@std@@V?$allocator@_W@2@@std@@AEAAXXZ
pdata	ENDS
;	COMDAT pdata
pdata	SEGMENT
$pdata$?_Getal@?$basic_string@_WU?$char_traits@_W@std@@V?$allocator@_W@2@@std@@AEAAAEAV?$allocator@_W@2@XZ DD imagerel $LN3
	DD	imagerel $LN3+29
	DD	imagerel $unwind$?_Getal@?$basic_string@_WU?$char_traits@_W@std@@V?$allocator@_W@2@@std@@AEAAAEAV?$allocator@_W@2@XZ
pdata	ENDS
;	COMDAT pdata
pdata	SEGMENT
$pdata$?_Getal@?$basic_string@_WU?$char_traits@_W@std@@V?$allocator@_W@2@@std@@AEBAAEBV?$allocator@_W@2@XZ DD imagerel $LN3
	DD	imagerel $LN3+29
	DD	imagerel $unwind$?_Getal@?$basic_string@_WU?$char_traits@_W@std@@V?$allocator@_W@2@@std@@AEBAAEBV?$allocator@_W@2@XZ
pdata	ENDS
;	COMDAT pdata
pdata	SEGMENT
$pdata$?_Get_first@?$_Compressed_pair@V?$allocator@_W@std@@V?$_String_val@U?$_Simple_types@_W@std@@@2@$00@std@@QEAAAEAV?$allocator@_W@2@XZ DD imagerel $LN3
	DD	imagerel $LN3+13
	DD	imagerel $unwind$?_Get_first@?$_Compressed_pair@V?$allocator@_W@std@@V?$_String_val@U?$_Simple_types@_W@std@@@2@$00@std@@QEAAAEAV?$allocator@_W@2@XZ
pdata	ENDS
;	COMDAT pdata
pdata	SEGMENT
$pdata$?_Get_first@?$_Compressed_pair@V?$allocator@_W@std@@V?$_String_val@U?$_Simple_types@_W@std@@@2@$00@std@@QEBAAEBV?$allocator@_W@2@XZ DD imagerel $LN3
	DD	imagerel $LN3+13
	DD	imagerel $unwind$?_Get_first@?$_Compressed_pair@V?$allocator@_W@std@@V?$_String_val@U?$_Simple_types@_W@std@@@2@$00@std@@QEBAAEBV?$allocator@_W@2@XZ
pdata	ENDS
;	COMDAT pdata
pdata	SEGMENT
$pdata$??1?$_Compressed_pair@V?$allocator@_W@std@@V?$_String_val@U?$_Simple_types@_W@std@@@2@$00@std@@QEAA@XZ DD imagerel $LN3
	DD	imagerel $LN3+29
	DD	imagerel $unwind$??1?$_Compressed_pair@V?$allocator@_W@std@@V?$_String_val@U?$_Simple_types@_W@std@@@2@$00@std@@QEAA@XZ
pdata	ENDS
;	COMDAT pdata
pdata	SEGMENT
$pdata$??0bad_cast@std@@QEAA@XZ DD imagerel $LN3
	DD	imagerel $LN3+59
	DD	imagerel $unwind$??0bad_cast@std@@QEAA@XZ
pdata	ENDS
;	COMDAT pdata
pdata	SEGMENT
$pdata$??1bad_cast@std@@UEAA@XZ DD imagerel $LN3
	DD	imagerel $LN3+26
	DD	imagerel $unwind$??1bad_cast@std@@UEAA@XZ
pdata	ENDS
;	COMDAT pdata
pdata	SEGMENT
$pdata$??0bad_cast@std@@QEAA@AEBV01@@Z DD imagerel $LN3
	DD	imagerel $LN3+56
	DD	imagerel $unwind$??0bad_cast@std@@QEAA@AEBV01@@Z
pdata	ENDS
;	COMDAT pdata
pdata	SEGMENT
$pdata$??_Gbad_cast@std@@UEAAPEAXI@Z DD imagerel $LN4
	DD	imagerel $LN4+61
	DD	imagerel $unwind$??_Gbad_cast@std@@UEAAPEAXI@Z
pdata	ENDS
;	COMDAT pdata
pdata	SEGMENT
$pdata$?_Throw_bad_cast@std@@YAXXZ DD imagerel $LN3
	DD	imagerel $LN3+39
	DD	imagerel $unwind$?_Throw_bad_cast@std@@YAXXZ
pdata	ENDS
;	COMDAT pdata
pdata	SEGMENT
$pdata$??1locale@std@@QEAA@XZ DD imagerel $LN6
	DD	imagerel $LN6+101
	DD	imagerel $unwind$??1locale@std@@QEAA@XZ
pdata	ENDS
;	COMDAT pdata
pdata	SEGMENT
$pdata$?_Getfacet@locale@std@@QEBAPEBVfacet@12@_K@Z DD imagerel $LN8
	DD	imagerel $LN8+169
	DD	imagerel $unwind$?_Getfacet@locale@std@@QEBAPEBVfacet@12@_K@Z
pdata	ENDS
;	COMDAT pdata
pdata	SEGMENT
$pdata$??$_Maklocstr@_W@std@@YAPEA_WPEBDPEA_WAEBU_Cvtvec@@@Z DD imagerel $LN12
	DD	imagerel $LN12+593
	DD	imagerel $unwind$??$_Maklocstr@_W@std@@YAPEA_WPEBDPEA_WAEBU_Cvtvec@@@Z
pdata	ENDS
;	COMDAT pdata
pdata	SEGMENT
$pdata$?_Maklocwcs@std@@YAPEA_WPEB_W@Z DD imagerel $LN4
	DD	imagerel $LN4+115
	DD	imagerel $unwind$?_Maklocwcs@std@@YAPEA_WPEB_W@Z
pdata	ENDS
;	COMDAT pdata
pdata	SEGMENT
$pdata$??$_Maklocstr@D@std@@YAPEADPEBDPEADAEBU_Cvtvec@@@Z DD imagerel $LN7
	DD	imagerel $LN7+180
	DD	imagerel $unwind$??$_Maklocstr@D@std@@YAPEADPEBDPEADAEBU_Cvtvec@@@Z
pdata	ENDS
;	COMDAT pdata
pdata	SEGMENT
$pdata$??$_Getvals@_W@?$time_get@DV?$istreambuf_iterator@DU?$char_traits@D@std@@@std@@@std@@IEAAX_WAEBV_Locinfo@1@@Z DD imagerel $LN5
	DD	imagerel $LN5+336
	DD	imagerel $unwind$??$_Getvals@_W@?$time_get@DV?$istreambuf_iterator@DU?$char_traits@D@std@@@std@@@std@@IEAAX_WAEBV_Locinfo@1@@Z
pdata	ENDS
;	COMDAT pdata
pdata	SEGMENT
$pdata$??$_Getvals@_W@?$time_get@_WV?$istreambuf_iterator@_WU?$char_traits@_W@std@@@std@@@std@@IEAAX_WAEBV_Locinfo@1@@Z DD imagerel $LN5
	DD	imagerel $LN5+336
	DD	imagerel $unwind$??$_Getvals@_W@?$time_get@_WV?$istreambuf_iterator@_WU?$char_traits@_W@std@@@std@@@std@@IEAAX_WAEBV_Locinfo@1@@Z
pdata	ENDS
pdata	SEGMENT
$pdata$?WriteModel@@YAXPEAU_iobuf@@UModel@@@Z DD imagerel $LN3
	DD	imagerel $LN3+59
	DD	imagerel $unwind$?WriteModel@@YAXPEAU_iobuf@@UModel@@@Z
$pdata$?ReadResult@@YAXPEAU_iobuf@@@Z DD imagerel $LN12
	DD	imagerel $LN12+406
	DD	imagerel $unwind$?ReadResult@@YAXPEAU_iobuf@@@Z
pdata	ENDS
;	COMDAT pdata
pdata	SEGMENT
$pdata$??$?6_WU?$char_traits@_W@std@@@std@@YAAEAV?$basic_ostream@_WU?$char_traits@_W@std@@@0@AEAV10@PEB_W@Z DD imagerel $LN25
	DD	imagerel $LN25+1082
	DD	imagerel $unwind$??$?6_WU?$char_traits@_W@std@@@std@@YAAEAV?$basic_ostream@_WU?$char_traits@_W@std@@@0@AEAV10@PEB_W@Z
pdata	ENDS
;	COMDAT pdata
pdata	SEGMENT
$pdata$?dtor$0@?0???$?6_WU?$char_traits@_W@std@@@std@@YAAEAV?$basic_ostream@_WU?$char_traits@_W@std@@@0@AEAV10@PEB_W@Z@4HA DD imagerel ?dtor$0@?0???$?6_WU?$char_traits@_W@std@@@std@@YAAEAV?$basic_ostream@_WU?$char_traits@_W@std@@@0@AEAV10@PEB_W@Z@4HA
	DD	imagerel ?dtor$0@?0???$?6_WU?$char_traits@_W@std@@@std@@YAAEAV?$basic_ostream@_WU?$char_traits@_W@std@@@0@AEAV10@PEB_W@Z@4HA+35
	DD	imagerel $unwind$?dtor$0@?0???$?6_WU?$char_traits@_W@std@@@std@@YAAEAV?$basic_ostream@_WU?$char_traits@_W@std@@@0@AEAV10@PEB_W@Z@4HA
pdata	ENDS
;	COMDAT pdata
pdata	SEGMENT
$pdata$?catch$1@?0???$?6_WU?$char_traits@_W@std@@@std@@YAAEAV?$basic_ostream@_WU?$char_traits@_W@std@@@0@AEAV10@PEB_W@Z@4HA DD imagerel ?catch$1@?0???$?6_WU?$char_traits@_W@std@@@std@@YAAEAV?$basic_ostream@_WU?$char_traits@_W@std@@@0@AEAV10@PEB_W@Z@4HA
	DD	imagerel ?catch$1@?0???$?6_WU?$char_traits@_W@std@@@std@@YAAEAV?$basic_ostream@_WU?$char_traits@_W@std@@@0@AEAV10@PEB_W@Z@4HA+79
	DD	imagerel $unwind$?catch$1@?0???$?6_WU?$char_traits@_W@std@@@std@@YAAEAV?$basic_ostream@_WU?$char_traits@_W@std@@@0@AEAV10@PEB_W@Z@4HA
pdata	ENDS
;	COMDAT pdata
pdata	SEGMENT
$pdata$??$endl@_WU?$char_traits@_W@std@@@std@@YAAEAV?$basic_ostream@_WU?$char_traits@_W@std@@@0@AEAV10@@Z DD imagerel $LN3
	DD	imagerel $LN3+80
	DD	imagerel $unwind$??$endl@_WU?$char_traits@_W@std@@@std@@YAAEAV?$basic_ostream@_WU?$char_traits@_W@std@@@0@AEAV10@@Z
pdata	ENDS
pdata	SEGMENT
$pdata$?SetLocale@@YAXXZ DD imagerel $LN3
	DD	imagerel $LN3+108
	DD	imagerel $unwind$?SetLocale@@YAXXZ
$pdata$main DD	imagerel $LN8
	DD	imagerel $LN8+587
	DD	imagerel $unwind$main
pdata	ENDS
pdata	SEGMENT
$pdata$main$dtor$0 DD imagerel main$dtor$0
	DD	imagerel main$dtor$0+35
	DD	imagerel $unwind$main$dtor$0
pdata	ENDS
;	COMDAT pdata
pdata	SEGMENT
$pdata$??$?5_WU?$char_traits@_W@std@@V?$allocator@_W@1@@std@@YAAEAV?$basic_istream@_WU?$char_traits@_W@std@@@0@$$QEAV10@AEAV?$basic_string@_WU?$char_traits@_W@std@@V?$allocator@_W@2@@0@@Z DD imagerel $LN22
	DD	imagerel $LN22+960
	DD	imagerel $unwind$??$?5_WU?$char_traits@_W@std@@V?$allocator@_W@1@@std@@YAAEAV?$basic_istream@_WU?$char_traits@_W@std@@@0@$$QEAV10@AEAV?$basic_string@_WU?$char_traits@_W@std@@V?$allocator@_W@2@@0@@Z
pdata	ENDS
;	COMDAT pdata
pdata	SEGMENT
$pdata$?dtor$0@?0???$?5_WU?$char_traits@_W@std@@V?$allocator@_W@1@@std@@YAAEAV?$basic_istream@_WU?$char_traits@_W@std@@@0@$$QEAV10@AEAV?$basic_string@_WU?$char_traits@_W@std@@V?$allocator@_W@2@@0@@Z@4HA DD imagerel ?dtor$0@?0???$?5_WU?$char_traits@_W@std@@V?$allocator@_W@1@@std@@YAAEAV?$basic_istream@_WU?$char_traits@_W@std@@@0@$$QEAV10@AEAV?$basic_string@_WU?$char_traits@_W@std@@V?$allocator@_W@2@@0@@Z@4HA
	DD	imagerel ?dtor$0@?0???$?5_WU?$char_traits@_W@std@@V?$allocator@_W@1@@std@@YAAEAV?$basic_istream@_WU?$char_traits@_W@std@@@0@$$QEAV10@AEAV?$basic_string@_WU?$char_traits@_W@std@@V?$allocator@_W@2@@0@@Z@4HA+35
	DD	imagerel $unwind$?dtor$0@?0???$?5_WU?$char_traits@_W@std@@V?$allocator@_W@1@@std@@YAAEAV?$basic_istream@_WU?$char_traits@_W@std@@@0@$$QEAV10@AEAV?$basic_string@_WU?$char_traits@_W@std@@V?$allocator@_W@2@@0@@Z@4HA
pdata	ENDS
;	COMDAT pdata
pdata	SEGMENT
$pdata$?dtor$1@?0???$?5_WU?$char_traits@_W@std@@V?$allocator@_W@1@@std@@YAAEAV?$basic_istream@_WU?$char_traits@_W@std@@@0@$$QEAV10@AEAV?$basic_string@_WU?$char_traits@_W@std@@V?$allocator@_W@2@@0@@Z@4HA DD imagerel ?dtor$1@?0???$?5_WU?$char_traits@_W@std@@V?$allocator@_W@1@@std@@YAAEAV?$basic_istream@_WU?$char_traits@_W@std@@@0@$$QEAV10@AEAV?$basic_string@_WU?$char_traits@_W@std@@V?$allocator@_W@2@@0@@Z@4HA
	DD	imagerel ?dtor$1@?0???$?5_WU?$char_traits@_W@std@@V?$allocator@_W@1@@std@@YAAEAV?$basic_istream@_WU?$char_traits@_W@std@@@0@$$QEAV10@AEAV?$basic_string@_WU?$char_traits@_W@std@@V?$allocator@_W@2@@0@@Z@4HA+38
	DD	imagerel $unwind$?dtor$1@?0???$?5_WU?$char_traits@_W@std@@V?$allocator@_W@1@@std@@YAAEAV?$basic_istream@_WU?$char_traits@_W@std@@@0@$$QEAV10@AEAV?$basic_string@_WU?$char_traits@_W@std@@V?$allocator@_W@2@@0@@Z@4HA
pdata	ENDS
;	COMDAT pdata
pdata	SEGMENT
$pdata$?catch$2@?0???$?5_WU?$char_traits@_W@std@@V?$allocator@_W@1@@std@@YAAEAV?$basic_istream@_WU?$char_traits@_W@std@@@0@$$QEAV10@AEAV?$basic_string@_WU?$char_traits@_W@std@@V?$allocator@_W@2@@0@@Z@4HA DD imagerel ?catch$2@?0???$?5_WU?$char_traits@_W@std@@V?$allocator@_W@1@@std@@YAAEAV?$basic_istream@_WU?$char_traits@_W@std@@@0@$$QEAV10@AEAV?$basic_string@_WU?$char_traits@_W@std@@V?$allocator@_W@2@@0@@Z@4HA
	DD	imagerel ?catch$2@?0???$?5_WU?$char_traits@_W@std@@V?$allocator@_W@1@@std@@YAAEAV?$basic_istream@_WU?$char_traits@_W@std@@@0@$$QEAV10@AEAV?$basic_string@_WU?$char_traits@_W@std@@V?$allocator@_W@2@@0@@Z@4HA+79
	DD	imagerel $unwind$?catch$2@?0???$?5_WU?$char_traits@_W@std@@V?$allocator@_W@1@@std@@YAAEAV?$basic_istream@_WU?$char_traits@_W@std@@@0@$$QEAV10@AEAV?$basic_string@_WU?$char_traits@_W@std@@V?$allocator@_W@2@@0@@Z@4HA
pdata	ENDS
;	COMDAT pdata
pdata	SEGMENT
$pdata$??$?5_WU?$char_traits@_W@std@@V?$allocator@_W@1@@std@@YAAEAV?$basic_istream@_WU?$char_traits@_W@std@@@0@AEAV10@AEAV?$basic_string@_WU?$char_traits@_W@std@@V?$allocator@_W@2@@0@@Z DD imagerel $LN3
	DD	imagerel $LN3+44
	DD	imagerel $unwind$??$?5_WU?$char_traits@_W@std@@V?$allocator@_W@1@@std@@YAAEAV?$basic_istream@_WU?$char_traits@_W@std@@@0@AEAV10@AEAV?$basic_string@_WU?$char_traits@_W@std@@V?$allocator@_W@2@@0@@Z
pdata	ENDS
;	COMDAT pdata
pdata	SEGMENT
$pdata$??$?8_WU?$char_traits@_W@std@@V?$allocator@_W@1@@std@@YA_NAEBV?$basic_string@_WU?$char_traits@_W@std@@V?$allocator@_W@2@@0@QEB_W@Z DD imagerel $LN3
	DD	imagerel $LN3+36
	DD	imagerel $unwind$??$?8_WU?$char_traits@_W@std@@V?$allocator@_W@1@@std@@YA_NAEBV?$basic_string@_WU?$char_traits@_W@std@@V?$allocator@_W@2@@0@QEB_W@Z
pdata	ENDS
;	COMDAT pdata
pdata	SEGMENT
$pdata$??$use_facet@V?$ctype@_W@std@@@std@@YAAEBV?$ctype@_W@0@AEBVlocale@0@@Z DD imagerel $LN11
	DD	imagerel $LN11+379
	DD	imagerel $unwind$??$use_facet@V?$ctype@_W@std@@@std@@YAAEBV?$ctype@_W@0@AEBVlocale@0@@Z
pdata	ENDS
;	COMDAT pdata
pdata	SEGMENT
$pdata$?dtor$0@?0???$use_facet@V?$ctype@_W@std@@@std@@YAAEBV?$ctype@_W@0@AEBVlocale@0@@Z@4HA DD imagerel ?dtor$0@?0???$use_facet@V?$ctype@_W@std@@@std@@YAAEBV?$ctype@_W@0@AEBVlocale@0@@Z@4HA
	DD	imagerel ?dtor$0@?0???$use_facet@V?$ctype@_W@std@@@std@@YAAEBV?$ctype@_W@0@AEBVlocale@0@@Z@4HA+36
	DD	imagerel $unwind$?dtor$0@?0???$use_facet@V?$ctype@_W@std@@@std@@YAAEBV?$ctype@_W@0@AEBVlocale@0@@Z@4HA
pdata	ENDS
;	COMDAT pdata
pdata	SEGMENT
$pdata$?dtor$1@?0???$use_facet@V?$ctype@_W@std@@@std@@YAAEBV?$ctype@_W@0@AEBVlocale@0@@Z@4HA DD imagerel ?dtor$1@?0???$use_facet@V?$ctype@_W@std@@@std@@YAAEBV?$ctype@_W@0@AEBVlocale@0@@Z@4HA
	DD	imagerel ?dtor$1@?0???$use_facet@V?$ctype@_W@std@@@std@@YAAEBV?$ctype@_W@0@AEBVlocale@0@@Z@4HA+35
	DD	imagerel $unwind$?dtor$1@?0???$use_facet@V?$ctype@_W@std@@@std@@YAAEBV?$ctype@_W@0@AEBVlocale@0@@Z@4HA
pdata	ENDS
;	COMDAT pdata
pdata	SEGMENT
$pdata$??0_Sentry_base@?$basic_ostream@_WU?$char_traits@_W@std@@@std@@QEAA@AEAV12@@Z DD imagerel $LN4
	DD	imagerel $LN4+113
	DD	imagerel $unwind$??0_Sentry_base@?$basic_ostream@_WU?$char_traits@_W@std@@@std@@QEAA@AEAV12@@Z
pdata	ENDS
;	COMDAT pdata
pdata	SEGMENT
$pdata$??1_Sentry_base@?$basic_ostream@_WU?$char_traits@_W@std@@@std@@QEAA@XZ DD imagerel $LN4
	DD	imagerel $LN4+91
	DD	imagerel $unwind$??1_Sentry_base@?$basic_ostream@_WU?$char_traits@_W@std@@@std@@QEAA@XZ
pdata	ENDS
;	COMDAT pdata
pdata	SEGMENT
$pdata$??0sentry@?$basic_ostream@_WU?$char_traits@_W@std@@@std@@QEAA@AEAV12@@Z DD imagerel $LN7
	DD	imagerel $LN7+211
	DD	imagerel $unwind$??0sentry@?$basic_ostream@_WU?$char_traits@_W@std@@@std@@QEAA@AEAV12@@Z
pdata	ENDS
;	COMDAT pdata
pdata	SEGMENT
$pdata$?dtor$0@?0???0sentry@?$basic_ostream@_WU?$char_traits@_W@std@@@std@@QEAA@AEAV12@@Z@4HA DD imagerel ?dtor$0@?0???0sentry@?$basic_ostream@_WU?$char_traits@_W@std@@@std@@QEAA@AEAV12@@Z@4HA
	DD	imagerel ?dtor$0@?0???0sentry@?$basic_ostream@_WU?$char_traits@_W@std@@@std@@QEAA@AEAV12@@Z@4HA+35
	DD	imagerel $unwind$?dtor$0@?0???0sentry@?$basic_ostream@_WU?$char_traits@_W@std@@@std@@QEAA@AEAV12@@Z@4HA
pdata	ENDS
;	COMDAT pdata
pdata	SEGMENT
$pdata$??1sentry@?$basic_ostream@_WU?$char_traits@_W@std@@@std@@QEAA@XZ DD imagerel $LN6
	DD	imagerel $LN6+83
	DD	imagerel $unwind$??1sentry@?$basic_ostream@_WU?$char_traits@_W@std@@@std@@QEAA@XZ
pdata	ENDS
;	COMDAT pdata
pdata	SEGMENT
$pdata$??Bsentry@?$basic_ostream@_WU?$char_traits@_W@std@@@std@@QEBA_NXZ DD imagerel $LN3
	DD	imagerel $LN3+17
	DD	imagerel $unwind$??Bsentry@?$basic_ostream@_WU?$char_traits@_W@std@@@std@@QEBA_NXZ
pdata	ENDS
;	COMDAT pdata
pdata	SEGMENT
$pdata$??$min@_K@std@@YAAEB_KAEB_K0@Z DD imagerel $LN5
	DD	imagerel $LN5+74
	DD	imagerel $unwind$??$min@_K@std@@YAAEB_KAEB_K0@Z
pdata	ENDS
;	COMDAT pdata
pdata	SEGMENT
$pdata$?allocate@?$allocator@U_Container_proxy@std@@@std@@QEAAPEAU_Container_proxy@2@_K@Z DD imagerel $LN3
	DD	imagerel $LN3+39
	DD	imagerel $unwind$?allocate@?$allocator@U_Container_proxy@std@@@std@@QEAAPEAU_Container_proxy@2@_K@Z
pdata	ENDS
;	COMDAT pdata
pdata	SEGMENT
$pdata$??$_Delete_plain_internal@V?$allocator@U_Container_proxy@std@@@std@@@std@@YAXAEAV?$allocator@U_Container_proxy@std@@@0@QEAU_Container_proxy@0@@Z DD imagerel $LN3
	DD	imagerel $LN3+36
	DD	imagerel $unwind$??$_Delete_plain_internal@V?$allocator@U_Container_proxy@std@@@std@@@std@@YAXAEAV?$allocator@U_Container_proxy@std@@@0@QEAU_Container_proxy@0@@Z
pdata	ENDS
;	COMDAT pdata
pdata	SEGMENT
$pdata$??$?0_W@?$allocator@U_Container_proxy@std@@@std@@QEAA@AEBV?$allocator@_W@1@@Z DD imagerel $LN3
	DD	imagerel $LN3+18
	DD	imagerel $unwind$??$?0_W@?$allocator@U_Container_proxy@std@@@std@@QEAA@AEBV?$allocator@_W@1@@Z
pdata	ENDS
;	COMDAT pdata
pdata	SEGMENT
$pdata$??$_Alloc_proxy@V?$allocator@U_Container_proxy@std@@@std@@@_Container_base12@std@@QEAAX$$QEAV?$allocator@U_Container_proxy@std@@@1@@Z DD imagerel $LN3
	DD	imagerel $LN3+100
	DD	imagerel $unwind$??$_Alloc_proxy@V?$allocator@U_Container_proxy@std@@@std@@@_Container_base12@std@@QEAAX$$QEAV?$allocator@U_Container_proxy@std@@@1@@Z
pdata	ENDS
;	COMDAT pdata
pdata	SEGMENT
$pdata$??$?0$$V@?$_Compressed_pair@V?$allocator@_W@std@@V?$_String_val@U?$_Simple_types@_W@std@@@2@$00@std@@QEAA@U_Zero_then_variadic_args_t@1@@Z DD imagerel $LN3
	DD	imagerel $LN3+48
	DD	imagerel $unwind$??$?0$$V@?$_Compressed_pair@V?$allocator@_W@std@@V?$_String_val@U?$_Simple_types@_W@std@@@2@$00@std@@QEAA@U_Zero_then_variadic_args_t@1@@Z
pdata	ENDS
;	COMDAT pdata
pdata	SEGMENT
$pdata$??$_Unfancy@U_Container_proxy@std@@@std@@YAPEAU_Container_proxy@0@PEAU10@@Z DD imagerel $LN3
	DD	imagerel $LN3+13
	DD	imagerel $unwind$??$_Unfancy@U_Container_proxy@std@@@std@@YAPEAU_Container_proxy@0@PEAU10@@Z
pdata	ENDS
;	COMDAT pdata
pdata	SEGMENT
$pdata$??$_Destroy_in_place@PEA_W@std@@YAXAEAPEA_W@Z DD imagerel $LN3
	DD	imagerel $LN3+8
	DD	imagerel $unwind$??$_Destroy_in_place@PEA_W@std@@YAXAEAPEA_W@Z
pdata	ENDS
;	COMDAT pdata
pdata	SEGMENT
$pdata$??R<lambda_25953b27f3c43b57ba59f021c7f225c5>@@QEBA@QEA_WQEB_W_K_W@Z DD imagerel $LN3
	DD	imagerel $LN3+113
	DD	imagerel $unwind$??R<lambda_25953b27f3c43b57ba59f021c7f225c5>@@QEBA@QEA_WQEB_W_K_W@Z
pdata	ENDS
;	COMDAT pdata
pdata	SEGMENT
$pdata$??$_Reallocate_grow_by@V<lambda_25953b27f3c43b57ba59f021c7f225c5>@@_W@?$basic_string@_WU?$char_traits@_W@std@@V?$allocator@_W@2@@std@@AEAAAEAV01@_KV<lambda_25953b27f3c43b57ba59f021c7f225c5>@@_W@Z DD imagerel $LN6
	DD	imagerel $LN6+548
	DD	imagerel $unwind$??$_Reallocate_grow_by@V<lambda_25953b27f3c43b57ba59f021c7f225c5>@@_W@?$basic_string@_WU?$char_traits@_W@std@@V?$allocator@_W@2@@std@@AEAAAEAV01@_KV<lambda_25953b27f3c43b57ba59f021c7f225c5>@@_W@Z
pdata	ENDS
;	COMDAT pdata
pdata	SEGMENT
$pdata$??$_Unfancy@_W@std@@YAPEA_WPEA_W@Z DD imagerel $LN3
	DD	imagerel $LN3+13
	DD	imagerel $unwind$??$_Unfancy@_W@std@@YAPEA_WPEA_W@Z
pdata	ENDS
;	COMDAT pdata
pdata	SEGMENT
$pdata$??$max@_K@std@@YAAEB_KAEB_K0@Z DD imagerel $LN5
	DD	imagerel $LN5+74
	DD	imagerel $unwind$??$max@_K@std@@YAAEB_KAEB_K0@Z
pdata	ENDS
;	COMDAT pdata
pdata	SEGMENT
$pdata$??$_Get_size_of_n@$0BA@@std@@YA_K_K@Z DD imagerel $LN4
	DD	imagerel $LN4+64
	DD	imagerel $unwind$??$_Get_size_of_n@$0BA@@std@@YA_K_K@Z
pdata	ENDS
;	COMDAT pdata
pdata	SEGMENT
$pdata$??$_Allocate@$0BA@U_Default_allocate_traits@std@@$0A@@std@@YAPEAX_K@Z DD imagerel $LN5
	DD	imagerel $LN5+61
	DD	imagerel $unwind$??$_Allocate@$0BA@U_Default_allocate_traits@std@@$0A@@std@@YAPEAX_K@Z
pdata	ENDS
;	COMDAT pdata
pdata	SEGMENT
$pdata$??$_Deallocate@$0BA@$0A@@std@@YAXPEAX_K@Z DD imagerel $LN4
	DD	imagerel $LN4+63
	DD	imagerel $unwind$??$_Deallocate@$0BA@$0A@@std@@YAXPEAX_K@Z
pdata	ENDS
;	COMDAT pdata
pdata	SEGMENT
$pdata$??$_Construct_in_place@PEA_WAEBQEA_W@std@@YAXAEAPEA_WAEBQEA_W@Z DD imagerel $LN3
	DD	imagerel $LN3+78
	DD	imagerel $unwind$??$_Construct_in_place@PEA_WAEBQEA_W@std@@YAXAEAPEA_WAEBQEA_W@Z
pdata	ENDS
;	COMDAT pdata
pdata	SEGMENT
$pdata$??$_Get_size_of_n@$01@std@@YA_K_K@Z DD imagerel $LN4
	DD	imagerel $LN4+66
	DD	imagerel $unwind$??$_Get_size_of_n@$01@std@@YA_K_K@Z
pdata	ENDS
;	COMDAT pdata
pdata	SEGMENT
$pdata$??$addressof@U_Container_proxy@std@@@std@@YAPEAU_Container_proxy@0@AEAU10@@Z DD imagerel $LN3
	DD	imagerel $LN3+13
	DD	imagerel $unwind$??$addressof@U_Container_proxy@std@@@std@@YAPEAU_Container_proxy@0@AEAU10@@Z
pdata	ENDS
;	COMDAT pdata
pdata	SEGMENT
$pdata$??$_Voidify_iter@PEAU_Container_proxy@std@@@std@@YAPEAXPEAU_Container_proxy@0@@Z DD imagerel $LN3
	DD	imagerel $LN3+13
	DD	imagerel $unwind$??$_Voidify_iter@PEAU_Container_proxy@std@@@std@@YAPEAXPEAU_Container_proxy@0@@Z
pdata	ENDS
;	COMDAT pdata
pdata	SEGMENT
$pdata$??$forward@PEAU_Container_base12@std@@@std@@YA$$QEAPEAU_Container_base12@0@AEAPEAU10@@Z DD imagerel $LN3
	DD	imagerel $LN3+13
	DD	imagerel $unwind$??$forward@PEAU_Container_base12@std@@@std@@YA$$QEAPEAU_Container_base12@0@AEAPEAU10@@Z
pdata	ENDS
;	COMDAT pdata
pdata	SEGMENT
$pdata$??R?$default_delete@V_Facet_base@std@@@std@@QEBAXPEAV_Facet_base@1@@Z DD imagerel $LN5
	DD	imagerel $LN5+75
	DD	imagerel $unwind$??R?$default_delete@V_Facet_base@std@@@std@@QEBAXPEAV_Facet_base@1@@Z
pdata	ENDS
;	COMDAT pdata
pdata	SEGMENT
$pdata$??1?$unique_ptr@V_Facet_base@std@@U?$default_delete@V_Facet_base@std@@@2@@std@@QEAA@XZ DD imagerel $LN4
	DD	imagerel $LN4+56
	DD	imagerel $unwind$??1?$unique_ptr@V_Facet_base@std@@U?$default_delete@V_Facet_base@std@@@2@@std@@QEAA@XZ
pdata	ENDS
;	COMDAT pdata
pdata	SEGMENT
$pdata$?release@?$unique_ptr@V_Facet_base@std@@U?$default_delete@V_Facet_base@std@@@2@@std@@QEAAPEAV_Facet_base@2@XZ DD imagerel $LN3
	DD	imagerel $LN3+43
	DD	imagerel $unwind$?release@?$unique_ptr@V_Facet_base@std@@U?$default_delete@V_Facet_base@std@@@2@@std@@QEAAPEAV_Facet_base@2@XZ
pdata	ENDS
;	COMDAT pdata
pdata	SEGMENT
$pdata$?_Get_first@?$_Compressed_pair@U?$default_delete@V_Facet_base@std@@@std@@PEAV_Facet_base@2@$00@std@@QEAAAEAU?$default_delete@V_Facet_base@std@@@2@XZ DD imagerel $LN3
	DD	imagerel $LN3+13
	DD	imagerel $unwind$?_Get_first@?$_Compressed_pair@U?$default_delete@V_Facet_base@std@@@std@@PEAV_Facet_base@2@$00@std@@QEAAAEAU?$default_delete@V_Facet_base@std@@@2@XZ
pdata	ENDS
;	COMDAT pdata
pdata	SEGMENT
$pdata$?__autoclassinit2@?$unique_ptr@V_Facet_base@std@@U?$default_delete@V_Facet_base@std@@@2@@std@@QEAAX_K@Z DD imagerel $LN3
	DD	imagerel $LN3+27
	DD	imagerel $unwind$?__autoclassinit2@?$unique_ptr@V_Facet_base@std@@U?$default_delete@V_Facet_base@std@@@2@@std@@QEAAX_K@Z
pdata	ENDS
;	COMDAT pdata
pdata	SEGMENT
$pdata$??$?0U?$default_delete@V_Facet_base@std@@@std@@$0A@@?$unique_ptr@V_Facet_base@std@@U?$default_delete@V_Facet_base@std@@@2@@std@@QEAA@PEAV_Facet_base@1@@Z DD imagerel $LN3
	DD	imagerel $LN3+49
	DD	imagerel $unwind$??$?0U?$default_delete@V_Facet_base@std@@@std@@$0A@@?$unique_ptr@V_Facet_base@std@@U?$default_delete@V_Facet_base@std@@@2@@std@@QEAA@PEAV_Facet_base@1@@Z
pdata	ENDS
;	COMDAT pdata
pdata	SEGMENT
$pdata$??$move@AEAV?$basic_istream@_WU?$char_traits@_W@std@@@std@@@std@@YA$$QEAV?$basic_istream@_WU?$char_traits@_W@std@@@0@AEAV10@@Z DD imagerel $LN3
	DD	imagerel $LN3+13
	DD	imagerel $unwind$??$move@AEAV?$basic_istream@_WU?$char_traits@_W@std@@@std@@@std@@YA$$QEAV?$basic_istream@_WU?$char_traits@_W@std@@@0@AEAV10@@Z
pdata	ENDS
;	COMDAT pdata
pdata	SEGMENT
$pdata$??0_Sentry_base@?$basic_istream@_WU?$char_traits@_W@std@@@std@@QEAA@AEAV12@@Z DD imagerel $LN4
	DD	imagerel $LN4+113
	DD	imagerel $unwind$??0_Sentry_base@?$basic_istream@_WU?$char_traits@_W@std@@@std@@QEAA@AEAV12@@Z
pdata	ENDS
;	COMDAT pdata
pdata	SEGMENT
$pdata$??1_Sentry_base@?$basic_istream@_WU?$char_traits@_W@std@@@std@@QEAA@XZ DD imagerel $LN4
	DD	imagerel $LN4+91
	DD	imagerel $unwind$??1_Sentry_base@?$basic_istream@_WU?$char_traits@_W@std@@@std@@QEAA@XZ
pdata	ENDS
;	COMDAT pdata
pdata	SEGMENT
$pdata$??0sentry@?$basic_istream@_WU?$char_traits@_W@std@@@std@@QEAA@AEAV12@_N@Z DD imagerel $LN4
	DD	imagerel $LN4+74
	DD	imagerel $unwind$??0sentry@?$basic_istream@_WU?$char_traits@_W@std@@@std@@QEAA@AEAV12@_N@Z
pdata	ENDS
;	COMDAT pdata
pdata	SEGMENT
$pdata$?dtor$0@?0???0sentry@?$basic_istream@_WU?$char_traits@_W@std@@@std@@QEAA@AEAV12@_N@Z@4HA DD imagerel ?dtor$0@?0???0sentry@?$basic_istream@_WU?$char_traits@_W@std@@@std@@QEAA@AEAV12@_N@Z@4HA
	DD	imagerel ?dtor$0@?0???0sentry@?$basic_istream@_WU?$char_traits@_W@std@@@std@@QEAA@AEAV12@_N@Z@4HA+35
	DD	imagerel $unwind$?dtor$0@?0???0sentry@?$basic_istream@_WU?$char_traits@_W@std@@@std@@QEAA@AEAV12@_N@Z@4HA
pdata	ENDS
;	COMDAT pdata
pdata	SEGMENT
$pdata$??Bsentry@?$basic_istream@_WU?$char_traits@_W@std@@@std@@QEBA_NXZ DD imagerel $LN3
	DD	imagerel $LN3+17
	DD	imagerel $unwind$??Bsentry@?$basic_istream@_WU?$char_traits@_W@std@@@std@@QEBA_NXZ
pdata	ENDS
;	COMDAT pdata
pdata	SEGMENT
$pdata$??1sentry@?$basic_istream@_WU?$char_traits@_W@std@@@std@@QEAA@XZ DD imagerel $LN3
	DD	imagerel $LN3+26
	DD	imagerel $unwind$??1sentry@?$basic_istream@_WU?$char_traits@_W@std@@@std@@QEAA@XZ
pdata	ENDS
;	COMDAT pdata
pdata	SEGMENT
$pdata$??$_Deallocate_plain@V?$allocator@U_Container_proxy@std@@@std@@@std@@YAXAEAV?$allocator@U_Container_proxy@std@@@0@QEAU_Container_proxy@0@@Z DD imagerel $LN3
	DD	imagerel $LN3+43
	DD	imagerel $unwind$??$_Deallocate_plain@V?$allocator@U_Container_proxy@std@@@std@@@std@@YAXAEAV?$allocator@U_Container_proxy@std@@@0@QEAU_Container_proxy@0@@Z
pdata	ENDS
;	COMDAT pdata
pdata	SEGMENT
$pdata$??$addressof@PEA_W@std@@YAPEAPEA_WAEAPEA_W@Z DD imagerel $LN3
	DD	imagerel $LN3+13
	DD	imagerel $unwind$??$addressof@PEA_W@std@@YAPEAPEA_WAEAPEA_W@Z
pdata	ENDS
;	COMDAT pdata
pdata	SEGMENT
$pdata$??$_Voidify_iter@PEAPEA_W@std@@YAPEAXPEAPEA_W@Z DD imagerel $LN3
	DD	imagerel $LN3+13
	DD	imagerel $unwind$??$_Voidify_iter@PEAPEA_W@std@@YAPEAXPEAPEA_W@Z
pdata	ENDS
;	COMDAT pdata
pdata	SEGMENT
$pdata$??$_Allocate_manually_vector_aligned@U_Default_allocate_traits@std@@@std@@YAPEAX_K@Z DD imagerel $LN13
	DD	imagerel $LN13+259
	DD	imagerel $unwind$??$_Allocate_manually_vector_aligned@U_Default_allocate_traits@std@@@std@@YAPEAX_K@Z
pdata	ENDS
;	COMDAT pdata
pdata	SEGMENT
$pdata$??$forward@AEBQEA_W@std@@YAAEBQEA_WAEBQEA_W@Z DD imagerel $LN3
	DD	imagerel $LN3+13
	DD	imagerel $unwind$??$forward@AEBQEA_W@std@@YAAEBQEA_WAEBQEA_W@Z
pdata	ENDS
;	COMDAT pdata
pdata	SEGMENT
$pdata$??$exchange@PEAV_Facet_base@std@@$$T@std@@YAPEAV_Facet_base@0@AEAPEAV10@$$QEA$$T@Z DD imagerel $LN3
	DD	imagerel $LN3+53
	DD	imagerel $unwind$??$exchange@PEAV_Facet_base@std@@$$T@std@@YAPEAV_Facet_base@0@AEAPEAV10@$$QEA$$T@Z
pdata	ENDS
;	COMDAT pdata
pdata	SEGMENT
$pdata$??$_Traits_equal@U?$char_traits@_W@std@@@std@@YA_NQEB_W_K01@Z DD imagerel $LN5
	DD	imagerel $LN5+90
	DD	imagerel $unwind$??$_Traits_equal@U?$char_traits@_W@std@@@std@@YA_NQEB_W_K01@Z
pdata	ENDS
;	COMDAT pdata
pdata	SEGMENT
$pdata$??$?0AEAPEAV_Facet_base@std@@@?$_Compressed_pair@U?$default_delete@V_Facet_base@std@@@std@@PEAV_Facet_base@2@$00@std@@QEAA@U_Zero_then_variadic_args_t@1@AEAPEAV_Facet_base@1@@Z DD imagerel $LN3
	DD	imagerel $LN3+51
	DD	imagerel $unwind$??$?0AEAPEAV_Facet_base@std@@@?$_Compressed_pair@U?$default_delete@V_Facet_base@std@@@std@@PEAV_Facet_base@2@$00@std@@QEAA@U_Zero_then_variadic_args_t@1@AEAPEAV_Facet_base@1@@Z
pdata	ENDS
;	COMDAT pdata
pdata	SEGMENT
$pdata$?deallocate@?$_Default_allocator_traits@V?$allocator@U_Container_proxy@std@@@std@@@std@@SAXAEAV?$allocator@U_Container_proxy@std@@@2@QEAU_Container_proxy@2@_K@Z DD imagerel $LN3
	DD	imagerel $LN3+45
	DD	imagerel $unwind$?deallocate@?$_Default_allocator_traits@V?$allocator@U_Container_proxy@std@@@std@@@std@@SAXAEAV?$allocator@U_Container_proxy@std@@@2@QEAU_Container_proxy@2@_K@Z
pdata	ENDS
;	COMDAT pdata
pdata	SEGMENT
$pdata$??$forward@AEAPEAV_Facet_base@std@@@std@@YAAEAPEAV_Facet_base@0@AEAPEAV10@@Z DD imagerel $LN3
	DD	imagerel $LN3+13
	DD	imagerel $unwind$??$forward@AEAPEAV_Facet_base@std@@@std@@YAAEAPEAV_Facet_base@0@AEAPEAV10@@Z
pdata	ENDS
;	COMDAT __real@c010000000000000
CONST	SEGMENT
__real@c010000000000000 DQ 0c010000000000000r	; -4
CONST	ENDS
;	COMDAT __real@c008000000000000
CONST	SEGMENT
__real@c008000000000000 DQ 0c008000000000000r	; -3
CONST	ENDS
;	COMDAT __real@c000000000000000
CONST	SEGMENT
__real@c000000000000000 DQ 0c000000000000000r	; -2
CONST	ENDS
;	COMDAT __real@0000000000000000
CONST	SEGMENT
__real@0000000000000000 DQ 00000000000000000r	; 0
CONST	ENDS
;	COMDAT rtc$TMZ
rtc$TMZ	SEGMENT
_RTC_Shutdown.rtc$TMZ DQ FLAT:_RTC_Shutdown
rtc$TMZ	ENDS
;	COMDAT rtc$IMZ
rtc$IMZ	SEGMENT
_RTC_InitBase.rtc$IMZ DQ FLAT:_RTC_InitBase
rtc$IMZ	ENDS
;	COMDAT ??_R1A@?0A@EA@bad_cast@std@@8
rdata$r	SEGMENT
??_R1A@?0A@EA@bad_cast@std@@8 DD imagerel ??_R0?AVbad_cast@std@@@8 ; std::bad_cast::`RTTI Base Class Descriptor at (0,-1,0,64)'
	DD	01H
	DD	00H
	DD	0ffffffffH
	DD	00H
	DD	040H
	DD	imagerel ??_R3bad_cast@std@@8
rdata$r	ENDS
;	COMDAT ??_R2bad_cast@std@@8
rdata$r	SEGMENT
??_R2bad_cast@std@@8 DD imagerel ??_R1A@?0A@EA@bad_cast@std@@8 ; std::bad_cast::`RTTI Base Class Array'
	DD	imagerel ??_R1A@?0A@EA@exception@std@@8
	ORG $+3
rdata$r	ENDS
;	COMDAT ??_R3bad_cast@std@@8
rdata$r	SEGMENT
??_R3bad_cast@std@@8 DD 00H				; std::bad_cast::`RTTI Class Hierarchy Descriptor'
	DD	00H
	DD	02H
	DD	imagerel ??_R2bad_cast@std@@8
rdata$r	ENDS
;	COMDAT ??_R4bad_cast@std@@6B@
rdata$r	SEGMENT
??_R4bad_cast@std@@6B@ DD 01H				; std::bad_cast::`RTTI Complete Object Locator'
	DD	00H
	DD	00H
	DD	imagerel ??_R0?AVbad_cast@std@@@8
	DD	imagerel ??_R3bad_cast@std@@8
	DD	imagerel ??_R4bad_cast@std@@6B@
rdata$r	ENDS
;	COMDAT ??_R1A@?0A@EA@bad_array_new_length@std@@8
rdata$r	SEGMENT
??_R1A@?0A@EA@bad_array_new_length@std@@8 DD imagerel ??_R0?AVbad_array_new_length@std@@@8 ; std::bad_array_new_length::`RTTI Base Class Descriptor at (0,-1,0,64)'
	DD	02H
	DD	00H
	DD	0ffffffffH
	DD	00H
	DD	040H
	DD	imagerel ??_R3bad_array_new_length@std@@8
rdata$r	ENDS
;	COMDAT ??_R2bad_array_new_length@std@@8
rdata$r	SEGMENT
??_R2bad_array_new_length@std@@8 DD imagerel ??_R1A@?0A@EA@bad_array_new_length@std@@8 ; std::bad_array_new_length::`RTTI Base Class Array'
	DD	imagerel ??_R1A@?0A@EA@bad_alloc@std@@8
	DD	imagerel ??_R1A@?0A@EA@exception@std@@8
	ORG $+3
rdata$r	ENDS
;	COMDAT ??_R3bad_array_new_length@std@@8
rdata$r	SEGMENT
??_R3bad_array_new_length@std@@8 DD 00H			; std::bad_array_new_length::`RTTI Class Hierarchy Descriptor'
	DD	00H
	DD	03H
	DD	imagerel ??_R2bad_array_new_length@std@@8
rdata$r	ENDS
;	COMDAT ??_R4bad_array_new_length@std@@6B@
rdata$r	SEGMENT
??_R4bad_array_new_length@std@@6B@ DD 01H		; std::bad_array_new_length::`RTTI Complete Object Locator'
	DD	00H
	DD	00H
	DD	imagerel ??_R0?AVbad_array_new_length@std@@@8
	DD	imagerel ??_R3bad_array_new_length@std@@8
	DD	imagerel ??_R4bad_array_new_length@std@@6B@
rdata$r	ENDS
;	COMDAT ??_R1A@?0A@EA@bad_alloc@std@@8
rdata$r	SEGMENT
??_R1A@?0A@EA@bad_alloc@std@@8 DD imagerel ??_R0?AVbad_alloc@std@@@8 ; std::bad_alloc::`RTTI Base Class Descriptor at (0,-1,0,64)'
	DD	01H
	DD	00H
	DD	0ffffffffH
	DD	00H
	DD	040H
	DD	imagerel ??_R3bad_alloc@std@@8
rdata$r	ENDS
;	COMDAT ??_R2bad_alloc@std@@8
rdata$r	SEGMENT
??_R2bad_alloc@std@@8 DD imagerel ??_R1A@?0A@EA@bad_alloc@std@@8 ; std::bad_alloc::`RTTI Base Class Array'
	DD	imagerel ??_R1A@?0A@EA@exception@std@@8
	ORG $+3
rdata$r	ENDS
;	COMDAT ??_R3bad_alloc@std@@8
rdata$r	SEGMENT
??_R3bad_alloc@std@@8 DD 00H				; std::bad_alloc::`RTTI Class Hierarchy Descriptor'
	DD	00H
	DD	02H
	DD	imagerel ??_R2bad_alloc@std@@8
rdata$r	ENDS
;	COMDAT ??_R4bad_alloc@std@@6B@
rdata$r	SEGMENT
??_R4bad_alloc@std@@6B@ DD 01H				; std::bad_alloc::`RTTI Complete Object Locator'
	DD	00H
	DD	00H
	DD	imagerel ??_R0?AVbad_alloc@std@@@8
	DD	imagerel ??_R3bad_alloc@std@@8
	DD	imagerel ??_R4bad_alloc@std@@6B@
rdata$r	ENDS
;	COMDAT ??_R1A@?0A@EA@exception@std@@8
rdata$r	SEGMENT
??_R1A@?0A@EA@exception@std@@8 DD imagerel ??_R0?AVexception@std@@@8 ; std::exception::`RTTI Base Class Descriptor at (0,-1,0,64)'
	DD	00H
	DD	00H
	DD	0ffffffffH
	DD	00H
	DD	040H
	DD	imagerel ??_R3exception@std@@8
rdata$r	ENDS
;	COMDAT ??_R2exception@std@@8
rdata$r	SEGMENT
??_R2exception@std@@8 DD imagerel ??_R1A@?0A@EA@exception@std@@8 ; std::exception::`RTTI Base Class Array'
	ORG $+3
rdata$r	ENDS
;	COMDAT ??_R3exception@std@@8
rdata$r	SEGMENT
??_R3exception@std@@8 DD 00H				; std::exception::`RTTI Class Hierarchy Descriptor'
	DD	00H
	DD	01H
	DD	imagerel ??_R2exception@std@@8
rdata$r	ENDS
;	COMDAT ??_R4exception@std@@6B@
rdata$r	SEGMENT
??_R4exception@std@@6B@ DD 01H				; std::exception::`RTTI Complete Object Locator'
	DD	00H
	DD	00H
	DD	imagerel ??_R0?AVexception@std@@@8
	DD	imagerel ??_R3exception@std@@8
	DD	imagerel ??_R4exception@std@@6B@
rdata$r	ENDS
;	COMDAT ??_C@_1BK@MHIKGOKE@?$AA?3?$AAA?$AAM?$AA?3?$AAa?$AAm?$AA?3?$AAP?$AAM?$AA?3?$AAp?$AAm@
CONST	SEGMENT
??_C@_1BK@MHIKGOKE@?$AA?3?$AAA?$AAM?$AA?3?$AAa?$AAm?$AA?3?$AAP?$AAM?$AA?3?$AAp?$AAm@ DB ':'
	DB	00H, 'A', 00H, 'M', 00H, ':', 00H, 'a', 00H, 'm', 00H, ':', 00H
	DB	'P', 00H, 'M', 00H, ':', 00H, 'p', 00H, 'm', 00H, 00H, 00H ; `string'
CONST	ENDS
;	COMDAT ??_C@_0BI@CFPLBAOH@invalid?5string?5position@
CONST	SEGMENT
??_C@_0BI@CFPLBAOH@invalid?5string?5position@ DB 'invalid string position'
	DB	00H						; `string'
CONST	ENDS
;	COMDAT ??_C@_0N@LPFKKEBD@?3AM?3am?3PM?3pm@
CONST	SEGMENT
??_C@_0N@LPFKKEBD@?3AM?3am?3PM?3pm@ DB ':AM:am:PM:pm', 00H ; `string'
CONST	ENDS
;	COMDAT ??_C@_0GI@OGMNKBMN@C?3?2Program?5Files?5?$CIx86?$CJ?2Microsof@
CONST	SEGMENT
??_C@_0GI@OGMNKBMN@C?3?2Program?5Files?5?$CIx86?$CJ?2Microsof@ DB 'C:\Pro'
	DB	'gram Files (x86)\Microsoft Visual Studio\2019\Community\VC\To'
	DB	'ols\MSVC\14.29.30133\include\xlocnum', 00H	; `string'
CONST	ENDS
;	COMDAT ??_C@_0GI@GFIAKDGM@C?3?2Program?5Files?5?$CIx86?$CJ?2Microsof@
CONST	SEGMENT
??_C@_0GI@GFIAKDGM@C?3?2Program?5Files?5?$CIx86?$CJ?2Microsof@ DB 'C:\Pro'
	DB	'gram Files (x86)\Microsoft Visual Studio\2019\Community\VC\To'
	DB	'ols\MSVC\14.29.30133\include\xlocale', 00H	; `string'
CONST	ENDS
;	COMDAT _CT??_R0?AVbad_cast@std@@@8??0bad_cast@std@@QEAA@AEBV01@@Z24
xdata$x	SEGMENT
_CT??_R0?AVbad_cast@std@@@8??0bad_cast@std@@QEAA@AEBV01@@Z24 DD 00H
	DD	imagerel ??_R0?AVbad_cast@std@@@8
	DD	00H
	DD	0ffffffffH
	ORG $+4
	DD	018H
	DD	imagerel ??0bad_cast@std@@QEAA@AEBV01@@Z
xdata$x	ENDS
;	COMDAT ??_R0?AVbad_cast@std@@@8
data$r	SEGMENT
??_R0?AVbad_cast@std@@@8 DQ FLAT:??_7type_info@@6B@	; std::bad_cast `RTTI Type Descriptor'
	DQ	0000000000000000H
	DB	'.?AVbad_cast@std@@', 00H
data$r	ENDS
;	COMDAT _CTA2?AVbad_cast@std@@
xdata$x	SEGMENT
_CTA2?AVbad_cast@std@@ DD 02H
	DD	imagerel _CT??_R0?AVbad_cast@std@@@8??0bad_cast@std@@QEAA@AEBV01@@Z24
	DD	imagerel _CT??_R0?AVexception@std@@@8??0exception@std@@QEAA@AEBV01@@Z24
xdata$x	ENDS
;	COMDAT _TI2?AVbad_cast@std@@
xdata$x	SEGMENT
_TI2?AVbad_cast@std@@ DD 00H
	DD	imagerel ??1bad_cast@std@@UEAA@XZ
	DD	00H
	DD	imagerel _CTA2?AVbad_cast@std@@
xdata$x	ENDS
;	COMDAT ??_C@_08EPJLHIJG@bad?5cast@
CONST	SEGMENT
??_C@_08EPJLHIJG@bad?5cast@ DB 'bad cast', 00H		; `string'
CONST	ENDS
;	COMDAT ??_7bad_cast@std@@6B@
CONST	SEGMENT
??_7bad_cast@std@@6B@ DQ FLAT:??_R4bad_cast@std@@6B@	; std::bad_cast::`vftable'
	DQ	FLAT:??_Ebad_cast@std@@UEAAPEAXI@Z
	DQ	FLAT:?what@exception@std@@UEBAPEBDXZ
CONST	ENDS
;	COMDAT ??_C@_0BA@JFNIOLAK@string?5too?5long@
CONST	SEGMENT
??_C@_0BA@JFNIOLAK@string?5too?5long@ DB 'string too long', 00H ; `string'
CONST	ENDS
;	COMDAT ??_C@_1CG@JNLFBNGN@?$AA?$CC?$AAi?$AAn?$AAv?$AAa?$AAl?$AAi?$AAd?$AA?5?$AAa?$AAr?$AAg?$AAu?$AAm?$AAe@
CONST	SEGMENT
??_C@_1CG@JNLFBNGN@?$AA?$CC?$AAi?$AAn?$AAv?$AAa?$AAl?$AAi?$AAd?$AA?5?$AAa?$AAr?$AAg?$AAu?$AAm?$AAe@ DB '"'
	DB	00H, 'i', 00H, 'n', 00H, 'v', 00H, 'a', 00H, 'l', 00H, 'i', 00H
	DB	'd', 00H, ' ', 00H, 'a', 00H, 'r', 00H, 'g', 00H, 'u', 00H, 'm'
	DB	00H, 'e', 00H, 'n', 00H, 't', 00H, '"', 00H, 00H, 00H ; `string'
CONST	ENDS
;	COMDAT ??_C@_11LOCGONAA@@
CONST	SEGMENT
??_C@_11LOCGONAA@@ DB 00H, 00H				; `string'
CONST	ENDS
;	COMDAT ??_C@_1NA@MJBOBEJL@?$AAC?$AA?3?$AA?2?$AAP?$AAr?$AAo?$AAg?$AAr?$AAa?$AAm?$AA?5?$AAF?$AAi?$AAl?$AAe@
CONST	SEGMENT
??_C@_1NA@MJBOBEJL@?$AAC?$AA?3?$AA?2?$AAP?$AAr?$AAo?$AAg?$AAr?$AAa?$AAm?$AA?5?$AAF?$AAi?$AAl?$AAe@ DB 'C'
	DB	00H, ':', 00H, '\', 00H, 'P', 00H, 'r', 00H, 'o', 00H, 'g', 00H
	DB	'r', 00H, 'a', 00H, 'm', 00H, ' ', 00H, 'F', 00H, 'i', 00H, 'l'
	DB	00H, 'e', 00H, 's', 00H, ' ', 00H, '(', 00H, 'x', 00H, '8', 00H
	DB	'6', 00H, ')', 00H, '\', 00H, 'M', 00H, 'i', 00H, 'c', 00H, 'r'
	DB	00H, 'o', 00H, 's', 00H, 'o', 00H, 'f', 00H, 't', 00H, ' ', 00H
	DB	'V', 00H, 'i', 00H, 's', 00H, 'u', 00H, 'a', 00H, 'l', 00H, ' '
	DB	00H, 'S', 00H, 't', 00H, 'u', 00H, 'd', 00H, 'i', 00H, 'o', 00H
	DB	'\', 00H, '2', 00H, '0', 00H, '1', 00H, '9', 00H, '\', 00H, 'C'
	DB	00H, 'o', 00H, 'm', 00H, 'm', 00H, 'u', 00H, 'n', 00H, 'i', 00H
	DB	't', 00H, 'y', 00H, '\', 00H, 'V', 00H, 'C', 00H, '\', 00H, 'T'
	DB	00H, 'o', 00H, 'o', 00H, 'l', 00H, 's', 00H, '\', 00H, 'M', 00H
	DB	'S', 00H, 'V', 00H, 'C', 00H, '\', 00H, '1', 00H, '4', 00H, '.'
	DB	00H, '2', 00H, '9', 00H, '.', 00H, '3', 00H, '0', 00H, '1', 00H
	DB	'3', 00H, '3', 00H, '\', 00H, 'i', 00H, 'n', 00H, 'c', 00H, 'l'
	DB	00H, 'u', 00H, 'd', 00H, 'e', 00H, '\', 00H, 'x', 00H, 'm', 00H
	DB	'e', 00H, 'm', 00H, 'o', 00H, 'r', 00H, 'y', 00H, 00H, 00H ; `string'
CONST	ENDS
;	COMDAT ??_C@_0GI@MNEMJBML@C?3?2Program?5Files?5?$CIx86?$CJ?2Microsof@
CONST	SEGMENT
??_C@_0GI@MNEMJBML@C?3?2Program?5Files?5?$CIx86?$CJ?2Microsof@ DB 'C:\Pro'
	DB	'gram Files (x86)\Microsoft Visual Studio\2019\Community\VC\To'
	DB	'ols\MSVC\14.29.30133\include\xmemory', 00H	; `string'
CONST	ENDS
;	COMDAT ??_C@_02DKCKIIND@?$CFs@
CONST	SEGMENT
??_C@_02DKCKIIND@?$CFs@ DB '%s', 00H			; `string'
CONST	ENDS
;	COMDAT ??_C@_0BB@FCMFBGOM@invalid?5argument@
CONST	SEGMENT
??_C@_0BB@FCMFBGOM@invalid?5argument@ DB 'invalid argument', 00H ; `string'
CONST	ENDS
;	COMDAT _CT??_R0?AVexception@std@@@8??0exception@std@@QEAA@AEBV01@@Z24
xdata$x	SEGMENT
_CT??_R0?AVexception@std@@@8??0exception@std@@QEAA@AEBV01@@Z24 DD 00H
	DD	imagerel ??_R0?AVexception@std@@@8
	DD	00H
	DD	0ffffffffH
	ORG $+4
	DD	018H
	DD	imagerel ??0exception@std@@QEAA@AEBV01@@Z
xdata$x	ENDS
;	COMDAT ??_R0?AVexception@std@@@8
data$r	SEGMENT
??_R0?AVexception@std@@@8 DQ FLAT:??_7type_info@@6B@	; std::exception `RTTI Type Descriptor'
	DQ	0000000000000000H
	DB	'.?AVexception@std@@', 00H
data$r	ENDS
;	COMDAT _CT??_R0?AVbad_alloc@std@@@8??0bad_alloc@std@@QEAA@AEBV01@@Z24
xdata$x	SEGMENT
_CT??_R0?AVbad_alloc@std@@@8??0bad_alloc@std@@QEAA@AEBV01@@Z24 DD 010H
	DD	imagerel ??_R0?AVbad_alloc@std@@@8
	DD	00H
	DD	0ffffffffH
	ORG $+4
	DD	018H
	DD	imagerel ??0bad_alloc@std@@QEAA@AEBV01@@Z
xdata$x	ENDS
;	COMDAT ??_R0?AVbad_alloc@std@@@8
data$r	SEGMENT
??_R0?AVbad_alloc@std@@@8 DQ FLAT:??_7type_info@@6B@	; std::bad_alloc `RTTI Type Descriptor'
	DQ	0000000000000000H
	DB	'.?AVbad_alloc@std@@', 00H
data$r	ENDS
;	COMDAT _CT??_R0?AVbad_array_new_length@std@@@8??0bad_array_new_length@std@@QEAA@AEBV01@@Z24
xdata$x	SEGMENT
_CT??_R0?AVbad_array_new_length@std@@@8??0bad_array_new_length@std@@QEAA@AEBV01@@Z24 DD 00H
	DD	imagerel ??_R0?AVbad_array_new_length@std@@@8
	DD	00H
	DD	0ffffffffH
	ORG $+4
	DD	018H
	DD	imagerel ??0bad_array_new_length@std@@QEAA@AEBV01@@Z
xdata$x	ENDS
;	COMDAT ??_R0?AVbad_array_new_length@std@@@8
data$r	SEGMENT
??_R0?AVbad_array_new_length@std@@@8 DQ FLAT:??_7type_info@@6B@ ; std::bad_array_new_length `RTTI Type Descriptor'
	DQ	0000000000000000H
	DB	'.?AVbad_array_new_length@std@@', 00H
data$r	ENDS
;	COMDAT _CTA3?AVbad_array_new_length@std@@
xdata$x	SEGMENT
_CTA3?AVbad_array_new_length@std@@ DD 03H
	DD	imagerel _CT??_R0?AVbad_array_new_length@std@@@8??0bad_array_new_length@std@@QEAA@AEBV01@@Z24
	DD	imagerel _CT??_R0?AVbad_alloc@std@@@8??0bad_alloc@std@@QEAA@AEBV01@@Z24
	DD	imagerel _CT??_R0?AVexception@std@@@8??0exception@std@@QEAA@AEBV01@@Z24
xdata$x	ENDS
;	COMDAT _TI3?AVbad_array_new_length@std@@
xdata$x	SEGMENT
_TI3?AVbad_array_new_length@std@@ DD 00H
	DD	imagerel ??1bad_array_new_length@std@@UEAA@XZ
	DD	00H
	DD	imagerel _CTA3?AVbad_array_new_length@std@@
xdata$x	ENDS
;	COMDAT ??_C@_0BF@KINCDENJ@bad?5array?5new?5length@
CONST	SEGMENT
??_C@_0BF@KINCDENJ@bad?5array?5new?5length@ DB 'bad array new length', 00H ; `string'
CONST	ENDS
;	COMDAT ??_7bad_array_new_length@std@@6B@
CONST	SEGMENT
??_7bad_array_new_length@std@@6B@ DQ FLAT:??_R4bad_array_new_length@std@@6B@ ; std::bad_array_new_length::`vftable'
	DQ	FLAT:??_Ebad_array_new_length@std@@UEAAPEAXI@Z
	DQ	FLAT:?what@exception@std@@UEBAPEBDXZ
CONST	ENDS
;	COMDAT ??_7bad_alloc@std@@6B@
CONST	SEGMENT
??_7bad_alloc@std@@6B@ DQ FLAT:??_R4bad_alloc@std@@6B@	; std::bad_alloc::`vftable'
	DQ	FLAT:??_Ebad_alloc@std@@UEAAPEAXI@Z
	DQ	FLAT:?what@exception@std@@UEBAPEBDXZ
CONST	ENDS
;	COMDAT ??_C@_0BC@EOODALEL@Unknown?5exception@
CONST	SEGMENT
??_C@_0BC@EOODALEL@Unknown?5exception@ DB 'Unknown exception', 00H ; `string'
CONST	ENDS
;	COMDAT ??_7exception@std@@6B@
CONST	SEGMENT
??_7exception@std@@6B@ DQ FLAT:??_R4exception@std@@6B@	; std::exception::`vftable'
	DQ	FLAT:??_Eexception@std@@UEAAPEAXI@Z
	DQ	FLAT:?what@exception@std@@UEBAPEBDXZ
CONST	ENDS
;	COMDAT xdata
xdata	SEGMENT
$unwind$??$forward@AEAPEAV_Facet_base@std@@@std@@YAAEAPEAV_Facet_base@0@AEAPEAV10@@Z DD 010601H
	DD	07006H
xdata	ENDS
;	COMDAT xdata
xdata	SEGMENT
$unwind$?deallocate@?$_Default_allocator_traits@V?$allocator@U_Container_proxy@std@@@std@@@std@@SAXAEAV?$allocator@U_Container_proxy@std@@@2@QEAU_Container_proxy@2@_K@Z DD 021401H
	DD	070103214H
xdata	ENDS
;	COMDAT xdata
xdata	SEGMENT
$unwind$??$?0AEAPEAV_Facet_base@std@@@?$_Compressed_pair@U?$default_delete@V_Facet_base@std@@@std@@PEAV_Facet_base@2@$00@std@@QEAA@U_Zero_then_variadic_args_t@1@AEAPEAV_Facet_base@1@@Z DD 021301H
	DD	0700f3213H
xdata	ENDS
;	COMDAT xdata
xdata	SEGMENT
$unwind$??$_Traits_equal@U?$char_traits@_W@std@@@std@@YA_NQEB_W_K01@Z DD 021901H
	DD	070155219H
xdata	ENDS
;	COMDAT xdata
xdata	SEGMENT
$unwind$??$exchange@PEAV_Facet_base@std@@$$T@std@@YAPEAV_Facet_base@0@AEAPEAV10@$$QEA$$T@Z DD 020f01H
	DD	0700b120fH
xdata	ENDS
;	COMDAT xdata
xdata	SEGMENT
$unwind$??$forward@AEBQEA_W@std@@YAAEBQEA_WAEBQEA_W@Z DD 010601H
	DD	07006H
xdata	ENDS
;	COMDAT xdata
xdata	SEGMENT
$unwind$??$_Allocate_manually_vector_aligned@U_Default_allocate_traits@std@@@std@@YAPEAX_K@Z DD 020a01H
	DD	07006920aH
xdata	ENDS
;	COMDAT xdata
xdata	SEGMENT
$unwind$??$_Voidify_iter@PEAPEA_W@std@@YAPEAXPEAPEA_W@Z DD 010601H
	DD	07006H
xdata	ENDS
;	COMDAT xdata
xdata	SEGMENT
$unwind$??$addressof@PEA_W@std@@YAPEAPEA_WAEAPEA_W@Z DD 010601H
	DD	07006H
xdata	ENDS
;	COMDAT xdata
xdata	SEGMENT
$ip2state$??$_Deallocate_plain@V?$allocator@U_Container_proxy@std@@@std@@@std@@YAXAEAV?$allocator@U_Container_proxy@std@@@0@QEAU_Container_proxy@0@@Z DB 02H
	DB	00H
	DB	00H
xdata	ENDS
;	COMDAT xdata
xdata	SEGMENT
$cppxdata$??$_Deallocate_plain@V?$allocator@U_Container_proxy@std@@@std@@@std@@YAXAEAV?$allocator@U_Container_proxy@std@@@0@QEAU_Container_proxy@0@@Z DB 060H
	DD	imagerel $ip2state$??$_Deallocate_plain@V?$allocator@U_Container_proxy@std@@@std@@@std@@YAXAEAV?$allocator@U_Container_proxy@std@@@0@QEAU_Container_proxy@0@@Z
xdata	ENDS
;	COMDAT xdata
xdata	SEGMENT
$unwind$??$_Deallocate_plain@V?$allocator@U_Container_proxy@std@@@std@@@std@@YAXAEAV?$allocator@U_Container_proxy@std@@@0@QEAU_Container_proxy@0@@Z DD 020f19H
	DD	0700b320fH
	DD	imagerel __CxxFrameHandler4
	DD	imagerel $cppxdata$??$_Deallocate_plain@V?$allocator@U_Container_proxy@std@@@std@@@std@@YAXAEAV?$allocator@U_Container_proxy@std@@@0@QEAU_Container_proxy@0@@Z
xdata	ENDS
;	COMDAT xdata
xdata	SEGMENT
$unwind$??1sentry@?$basic_istream@_WU?$char_traits@_W@std@@@std@@QEAA@XZ DD 020a01H
	DD	07006320aH
xdata	ENDS
;	COMDAT xdata
xdata	SEGMENT
$unwind$??Bsentry@?$basic_istream@_WU?$char_traits@_W@std@@@std@@QEBA_NXZ DD 010601H
	DD	07006H
xdata	ENDS
;	COMDAT voltbl
voltbl	SEGMENT
_volmd	DB	00H
	DB	05H
voltbl	ENDS
;	COMDAT xdata
xdata	SEGMENT
$unwind$?dtor$0@?0???0sentry@?$basic_istream@_WU?$char_traits@_W@std@@@std@@QEAA@AEAV12@_N@Z@4HA DD 031001H
	DD	0700c4210H
	DD	0500bH
xdata	ENDS
;	COMDAT xdata
xdata	SEGMENT
$ip2state$??0sentry@?$basic_istream@_WU?$char_traits@_W@std@@@std@@QEAA@AEAV12@_N@Z DB 06H
	DB	00H
	DB	00H
	DB	'H'
	DB	02H
	DB	'6'
	DB	00H
xdata	ENDS
;	COMDAT xdata
xdata	SEGMENT
$stateUnwindMap$??0sentry@?$basic_istream@_WU?$char_traits@_W@std@@@std@@QEAA@AEAV12@_N@Z DB 02H
	DB	0eH
	DD	imagerel ?dtor$0@?0???0sentry@?$basic_istream@_WU?$char_traits@_W@std@@@std@@QEAA@AEAV12@_N@Z@4HA
xdata	ENDS
;	COMDAT xdata
xdata	SEGMENT
$cppxdata$??0sentry@?$basic_istream@_WU?$char_traits@_W@std@@@std@@QEAA@AEAV12@_N@Z DB 028H
	DD	imagerel $stateUnwindMap$??0sentry@?$basic_istream@_WU?$char_traits@_W@std@@@std@@QEAA@AEAV12@_N@Z
	DD	imagerel $ip2state$??0sentry@?$basic_istream@_WU?$char_traits@_W@std@@@std@@QEAA@AEAV12@_N@Z
xdata	ENDS
;	COMDAT xdata
xdata	SEGMENT
$unwind$??0sentry@?$basic_istream@_WU?$char_traits@_W@std@@@std@@QEAA@AEAV12@_N@Z DD 021411H
	DD	070103214H
	DD	imagerel __CxxFrameHandler4
	DD	imagerel $cppxdata$??0sentry@?$basic_istream@_WU?$char_traits@_W@std@@@std@@QEAA@AEAV12@_N@Z
xdata	ENDS
;	COMDAT xdata
xdata	SEGMENT
$ip2state$??1_Sentry_base@?$basic_istream@_WU?$char_traits@_W@std@@@std@@QEAA@XZ DB 02H
	DB	00H
	DB	00H
xdata	ENDS
;	COMDAT xdata
xdata	SEGMENT
$cppxdata$??1_Sentry_base@?$basic_istream@_WU?$char_traits@_W@std@@@std@@QEAA@XZ DB 060H
	DD	imagerel $ip2state$??1_Sentry_base@?$basic_istream@_WU?$char_traits@_W@std@@@std@@QEAA@XZ
xdata	ENDS
;	COMDAT xdata
xdata	SEGMENT
$unwind$??1_Sentry_base@?$basic_istream@_WU?$char_traits@_W@std@@@std@@QEAA@XZ DD 020a19H
	DD	07006520aH
	DD	imagerel __CxxFrameHandler4
	DD	imagerel $cppxdata$??1_Sentry_base@?$basic_istream@_WU?$char_traits@_W@std@@@std@@QEAA@XZ
xdata	ENDS
;	COMDAT xdata
xdata	SEGMENT
$unwind$??0_Sentry_base@?$basic_istream@_WU?$char_traits@_W@std@@@std@@QEAA@AEAV12@@Z DD 020f01H
	DD	0700b520fH
xdata	ENDS
;	COMDAT xdata
xdata	SEGMENT
$unwind$??$move@AEAV?$basic_istream@_WU?$char_traits@_W@std@@@std@@@std@@YA$$QEAV?$basic_istream@_WU?$char_traits@_W@std@@@0@AEAV10@@Z DD 010601H
	DD	07006H
xdata	ENDS
;	COMDAT xdata
xdata	SEGMENT
$unwind$??$?0U?$default_delete@V_Facet_base@std@@@std@@$0A@@?$unique_ptr@V_Facet_base@std@@U?$default_delete@V_Facet_base@std@@@2@@std@@QEAA@PEAV_Facet_base@1@@Z DD 020f01H
	DD	0700b520fH
xdata	ENDS
;	COMDAT xdata
xdata	SEGMENT
$unwind$?__autoclassinit2@?$unique_ptr@V_Facet_base@std@@U?$default_delete@V_Facet_base@std@@@2@@std@@QEAAX_K@Z DD 010b01H
	DD	0700bH
xdata	ENDS
;	COMDAT xdata
xdata	SEGMENT
$unwind$?_Get_first@?$_Compressed_pair@U?$default_delete@V_Facet_base@std@@@std@@PEAV_Facet_base@2@$00@std@@QEAAAEAU?$default_delete@V_Facet_base@std@@@2@XZ DD 010601H
	DD	07006H
xdata	ENDS
;	COMDAT xdata
xdata	SEGMENT
$unwind$?release@?$unique_ptr@V_Facet_base@std@@U?$default_delete@V_Facet_base@std@@@2@@std@@QEAAPEAV_Facet_base@2@XZ DD 020a01H
	DD	07006520aH
xdata	ENDS
;	COMDAT xdata
xdata	SEGMENT
$unwind$??1?$unique_ptr@V_Facet_base@std@@U?$default_delete@V_Facet_base@std@@@2@@std@@QEAA@XZ DD 020a01H
	DD	07006320aH
xdata	ENDS
;	COMDAT xdata
xdata	SEGMENT
$unwind$??R?$default_delete@V_Facet_base@std@@@std@@QEBAXPEAV_Facet_base@1@@Z DD 020f01H
	DD	0700b520fH
xdata	ENDS
;	COMDAT xdata
xdata	SEGMENT
$unwind$??$forward@PEAU_Container_base12@std@@@std@@YA$$QEAPEAU_Container_base12@0@AEAPEAU10@@Z DD 010601H
	DD	07006H
xdata	ENDS
;	COMDAT xdata
xdata	SEGMENT
$unwind$??$_Voidify_iter@PEAU_Container_proxy@std@@@std@@YAPEAXPEAU_Container_proxy@0@@Z DD 010601H
	DD	07006H
xdata	ENDS
;	COMDAT xdata
xdata	SEGMENT
$unwind$??$addressof@U_Container_proxy@std@@@std@@YAPEAU_Container_proxy@0@AEAU10@@Z DD 010601H
	DD	07006H
xdata	ENDS
;	COMDAT xdata
xdata	SEGMENT
$unwind$??$_Get_size_of_n@$01@std@@YA_K_K@Z DD 020a01H
	DD	07006520aH
xdata	ENDS
;	COMDAT xdata
xdata	SEGMENT
$unwind$??$_Construct_in_place@PEA_WAEBQEA_W@std@@YAXAEAPEA_WAEBQEA_W@Z DD 020f01H
	DD	0700b520fH
xdata	ENDS
;	COMDAT xdata
xdata	SEGMENT
$ip2state$??$_Deallocate@$0BA@$0A@@std@@YAXPEAX_K@Z DB 02H
	DB	00H
	DB	00H
xdata	ENDS
;	COMDAT xdata
xdata	SEGMENT
$cppxdata$??$_Deallocate@$0BA@$0A@@std@@YAXPEAX_K@Z DB 060H
	DD	imagerel $ip2state$??$_Deallocate@$0BA@$0A@@std@@YAXPEAX_K@Z
xdata	ENDS
;	COMDAT xdata
xdata	SEGMENT
$unwind$??$_Deallocate@$0BA@$0A@@std@@YAXPEAX_K@Z DD 020f19H
	DD	0700b320fH
	DD	imagerel __CxxFrameHandler4
	DD	imagerel $cppxdata$??$_Deallocate@$0BA@$0A@@std@@YAXPEAX_K@Z
xdata	ENDS
;	COMDAT xdata
xdata	SEGMENT
$unwind$??$_Allocate@$0BA@U_Default_allocate_traits@std@@$0A@@std@@YAPEAX_K@Z DD 020a01H
	DD	07006320aH
xdata	ENDS
;	COMDAT xdata
xdata	SEGMENT
$unwind$??$_Get_size_of_n@$0BA@@std@@YA_K_K@Z DD 020a01H
	DD	07006520aH
xdata	ENDS
;	COMDAT xdata
xdata	SEGMENT
$unwind$??$max@_K@std@@YAAEB_KAEB_K0@Z DD 020f01H
	DD	0700b120fH
xdata	ENDS
;	COMDAT xdata
xdata	SEGMENT
$unwind$??$_Unfancy@_W@std@@YAPEA_WPEA_W@Z DD 010601H
	DD	07006H
xdata	ENDS
;	COMDAT voltbl
voltbl	SEGMENT
_volmd	DW	040H
	DW	020bH
voltbl	ENDS
;	COMDAT xdata
xdata	SEGMENT
$unwind$??$_Reallocate_grow_by@V<lambda_25953b27f3c43b57ba59f021c7f225c5>@@_W@?$basic_string@_WU?$char_traits@_W@std@@V?$allocator@_W@2@@std@@AEAAAEAV01@_KV<lambda_25953b27f3c43b57ba59f021c7f225c5>@@_W@Z DD 034819H
	DD	014011dH
	DD	07016H
	DD	imagerel __GSHandlerCheck
	DD	090H
xdata	ENDS
;	COMDAT CONST
CONST	SEGMENT
??$_Reallocate_grow_by@V<lambda_25953b27f3c43b57ba59f021c7f225c5>@@_W@?$basic_string@_WU?$char_traits@_W@std@@V?$allocator@_W@2@@std@@AEAAAEAV01@_KV<lambda_25953b27f3c43b57ba59f021c7f225c5>@@_W@Z$rtcName$0 DB 05fH ; std::basic_string<wchar_t,std::char_traits<wchar_t>,std::allocator<wchar_t> >::_Reallocate_grow_by<<lambda_25953b27f3c43b57ba59f021c7f225c5>,wchar_t>
	DB	04eH
	DB	065H
	DB	077H
	DB	05fH
	DB	070H
	DB	074H
	DB	072H
	DB	00H
	ORG $+7
??$_Reallocate_grow_by@V<lambda_25953b27f3c43b57ba59f021c7f225c5>@@_W@?$basic_string@_WU?$char_traits@_W@std@@V?$allocator@_W@2@@std@@AEAAAEAV01@_KV<lambda_25953b27f3c43b57ba59f021c7f225c5>@@_W@Z$rtcVarDesc DD 068H ; std::basic_string<wchar_t,std::char_traits<wchar_t>,std::allocator<wchar_t> >::_Reallocate_grow_by<<lambda_25953b27f3c43b57ba59f021c7f225c5>,wchar_t>
	DD	08H
	DQ	FLAT:??$_Reallocate_grow_by@V<lambda_25953b27f3c43b57ba59f021c7f225c5>@@_W@?$basic_string@_WU?$char_traits@_W@std@@V?$allocator@_W@2@@std@@AEAAAEAV01@_KV<lambda_25953b27f3c43b57ba59f021c7f225c5>@@_W@Z$rtcName$0
	ORG $+48
??$_Reallocate_grow_by@V<lambda_25953b27f3c43b57ba59f021c7f225c5>@@_W@?$basic_string@_WU?$char_traits@_W@std@@V?$allocator@_W@2@@std@@AEAAAEAV01@_KV<lambda_25953b27f3c43b57ba59f021c7f225c5>@@_W@Z$rtcFrameData DD 01H ; std::basic_string<wchar_t,std::char_traits<wchar_t>,std::allocator<wchar_t> >::_Reallocate_grow_by<<lambda_25953b27f3c43b57ba59f021c7f225c5>,wchar_t>
	DD	00H
	DQ	FLAT:??$_Reallocate_grow_by@V<lambda_25953b27f3c43b57ba59f021c7f225c5>@@_W@?$basic_string@_WU?$char_traits@_W@std@@V?$allocator@_W@2@@std@@AEAAAEAV01@_KV<lambda_25953b27f3c43b57ba59f021c7f225c5>@@_W@Z$rtcVarDesc
CONST	ENDS
;	COMDAT xdata
xdata	SEGMENT
$unwind$??R<lambda_25953b27f3c43b57ba59f021c7f225c5>@@QEBA@QEA_WQEB_W_K_W@Z DD 021901H
	DD	070155219H
xdata	ENDS
;	COMDAT xdata
xdata	SEGMENT
$unwind$??$_Destroy_in_place@PEA_W@std@@YAXAEAPEA_W@Z DD 010601H
	DD	07006H
xdata	ENDS
;	COMDAT xdata
xdata	SEGMENT
$unwind$??$_Unfancy@U_Container_proxy@std@@@std@@YAPEAU_Container_proxy@0@PEAU10@@Z DD 010601H
	DD	07006H
xdata	ENDS
;	COMDAT xdata
xdata	SEGMENT
$unwind$??$?0$$V@?$_Compressed_pair@V?$allocator@_W@std@@V?$_String_val@U?$_Simple_types@_W@std@@@2@$00@std@@QEAA@U_Zero_then_variadic_args_t@1@@Z DD 020e01H
	DD	0700a320eH
xdata	ENDS
;	COMDAT xdata
xdata	SEGMENT
$unwind$??$_Alloc_proxy@V?$allocator@U_Container_proxy@std@@@std@@@_Container_base12@std@@QEAAX$$QEAV?$allocator@U_Container_proxy@std@@@1@@Z DD 020f01H
	DD	0700b520fH
xdata	ENDS
;	COMDAT xdata
xdata	SEGMENT
$unwind$??$?0_W@?$allocator@U_Container_proxy@std@@@std@@QEAA@AEBV?$allocator@_W@1@@Z DD 010b01H
	DD	0700bH
xdata	ENDS
;	COMDAT xdata
xdata	SEGMENT
$unwind$??$_Delete_plain_internal@V?$allocator@U_Container_proxy@std@@@std@@@std@@YAXAEAV?$allocator@U_Container_proxy@std@@@0@QEAU_Container_proxy@0@@Z DD 020f01H
	DD	0700b320fH
xdata	ENDS
;	COMDAT xdata
xdata	SEGMENT
$unwind$?allocate@?$allocator@U_Container_proxy@std@@@std@@QEAAPEAU_Container_proxy@2@_K@Z DD 020f01H
	DD	0700b320fH
xdata	ENDS
;	COMDAT xdata
xdata	SEGMENT
$unwind$??$min@_K@std@@YAAEB_KAEB_K0@Z DD 020f01H
	DD	0700b120fH
xdata	ENDS
;	COMDAT xdata
xdata	SEGMENT
$unwind$??Bsentry@?$basic_ostream@_WU?$char_traits@_W@std@@@std@@QEBA_NXZ DD 010601H
	DD	07006H
xdata	ENDS
;	COMDAT xdata
xdata	SEGMENT
$ip2state$??1sentry@?$basic_ostream@_WU?$char_traits@_W@std@@@std@@QEAA@XZ DB 02H
	DB	00H
	DB	00H
xdata	ENDS
;	COMDAT xdata
xdata	SEGMENT
$cppxdata$??1sentry@?$basic_ostream@_WU?$char_traits@_W@std@@@std@@QEAA@XZ DB 060H
	DD	imagerel $ip2state$??1sentry@?$basic_ostream@_WU?$char_traits@_W@std@@@std@@QEAA@XZ
xdata	ENDS
;	COMDAT xdata
xdata	SEGMENT
$unwind$??1sentry@?$basic_ostream@_WU?$char_traits@_W@std@@@std@@QEAA@XZ DD 020a19H
	DD	07006520aH
	DD	imagerel __CxxFrameHandler4
	DD	imagerel $cppxdata$??1sentry@?$basic_ostream@_WU?$char_traits@_W@std@@@std@@QEAA@XZ
xdata	ENDS
;	COMDAT voltbl
voltbl	SEGMENT
_volmd	DB	00H
	DB	05H
voltbl	ENDS
;	COMDAT xdata
xdata	SEGMENT
$unwind$?dtor$0@?0???0sentry@?$basic_ostream@_WU?$char_traits@_W@std@@@std@@QEAA@AEAV12@@Z@4HA DD 031001H
	DD	0700c4210H
	DD	0500bH
xdata	ENDS
;	COMDAT xdata
xdata	SEGMENT
$ip2state$??0sentry@?$basic_ostream@_WU?$char_traits@_W@std@@@std@@QEAA@AEAV12@@Z DB 06H
	DB	00H
	DB	00H
	DB	'>'
	DB	02H
	DB	0a5H, 02H
	DB	00H
xdata	ENDS
;	COMDAT xdata
xdata	SEGMENT
$stateUnwindMap$??0sentry@?$basic_ostream@_WU?$char_traits@_W@std@@@std@@QEAA@AEAV12@@Z DB 02H
	DB	0eH
	DD	imagerel ?dtor$0@?0???0sentry@?$basic_ostream@_WU?$char_traits@_W@std@@@std@@QEAA@AEAV12@@Z@4HA
xdata	ENDS
;	COMDAT xdata
xdata	SEGMENT
$cppxdata$??0sentry@?$basic_ostream@_WU?$char_traits@_W@std@@@std@@QEAA@AEAV12@@Z DB 028H
	DD	imagerel $stateUnwindMap$??0sentry@?$basic_ostream@_WU?$char_traits@_W@std@@@std@@QEAA@AEAV12@@Z
	DD	imagerel $ip2state$??0sentry@?$basic_ostream@_WU?$char_traits@_W@std@@@std@@QEAA@AEAV12@@Z
xdata	ENDS
;	COMDAT xdata
xdata	SEGMENT
$unwind$??0sentry@?$basic_ostream@_WU?$char_traits@_W@std@@@std@@QEAA@AEAV12@@Z DD 020f11H
	DD	0700b520fH
	DD	imagerel __CxxFrameHandler4
	DD	imagerel $cppxdata$??0sentry@?$basic_ostream@_WU?$char_traits@_W@std@@@std@@QEAA@AEAV12@@Z
xdata	ENDS
;	COMDAT xdata
xdata	SEGMENT
$ip2state$??1_Sentry_base@?$basic_ostream@_WU?$char_traits@_W@std@@@std@@QEAA@XZ DB 02H
	DB	00H
	DB	00H
xdata	ENDS
;	COMDAT xdata
xdata	SEGMENT
$cppxdata$??1_Sentry_base@?$basic_ostream@_WU?$char_traits@_W@std@@@std@@QEAA@XZ DB 060H
	DD	imagerel $ip2state$??1_Sentry_base@?$basic_ostream@_WU?$char_traits@_W@std@@@std@@QEAA@XZ
xdata	ENDS
;	COMDAT xdata
xdata	SEGMENT
$unwind$??1_Sentry_base@?$basic_ostream@_WU?$char_traits@_W@std@@@std@@QEAA@XZ DD 020a19H
	DD	07006520aH
	DD	imagerel __CxxFrameHandler4
	DD	imagerel $cppxdata$??1_Sentry_base@?$basic_ostream@_WU?$char_traits@_W@std@@@std@@QEAA@XZ
xdata	ENDS
;	COMDAT xdata
xdata	SEGMENT
$unwind$??0_Sentry_base@?$basic_ostream@_WU?$char_traits@_W@std@@@std@@QEAA@AEAV12@@Z DD 020f01H
	DD	0700b520fH
xdata	ENDS
;	COMDAT voltbl
voltbl	SEGMENT
_volmd	DB	00H
	DB	05H
voltbl	ENDS
;	COMDAT voltbl
voltbl	SEGMENT
_volmd	DB	00H
	DB	05H
voltbl	ENDS
;	COMDAT voltbl
voltbl	SEGMENT
_volmd	DW	030H
	DW	0162H
voltbl	ENDS
;	COMDAT xdata
xdata	SEGMENT
$unwind$?dtor$1@?0???$use_facet@V?$ctype@_W@std@@@std@@YAAEBV?$ctype@_W@0@AEBVlocale@0@@Z@4HA DD 031001H
	DD	0700c4210H
	DD	0500bH
xdata	ENDS
;	COMDAT xdata
xdata	SEGMENT
$unwind$?dtor$0@?0???$use_facet@V?$ctype@_W@std@@@std@@YAAEBV?$ctype@_W@0@AEBVlocale@0@@Z@4HA DD 031001H
	DD	0700c4210H
	DD	0500bH
xdata	ENDS
;	COMDAT xdata
xdata	SEGMENT
$ip2state$??$use_facet@V?$ctype@_W@std@@@std@@YAAEBV?$ctype@_W@0@AEBVlocale@0@@Z DB 0aH
	DB	00H
	DB	00H
	DB	08cH
	DB	02H
	DB	089H, 02H
	DB	04H
	DB	'v'
	DB	02H
	DB	'.'
	DB	00H
xdata	ENDS
;	COMDAT xdata
xdata	SEGMENT
$stateUnwindMap$??$use_facet@V?$ctype@_W@std@@@std@@YAAEBV?$ctype@_W@0@AEBVlocale@0@@Z DB 04H
	DB	0eH
	DD	imagerel ?dtor$0@?0???$use_facet@V?$ctype@_W@std@@@std@@YAAEBV?$ctype@_W@0@AEBVlocale@0@@Z@4HA
	DB	02eH
	DD	imagerel ?dtor$1@?0???$use_facet@V?$ctype@_W@std@@@std@@YAAEBV?$ctype@_W@0@AEBVlocale@0@@Z@4HA
xdata	ENDS
;	COMDAT xdata
xdata	SEGMENT
$cppxdata$??$use_facet@V?$ctype@_W@std@@@std@@YAAEBV?$ctype@_W@0@AEBVlocale@0@@Z DB 028H
	DD	imagerel $stateUnwindMap$??$use_facet@V?$ctype@_W@std@@@std@@YAAEBV?$ctype@_W@0@AEBVlocale@0@@Z
	DD	imagerel $ip2state$??$use_facet@V?$ctype@_W@std@@@std@@YAAEBV?$ctype@_W@0@AEBVlocale@0@@Z
xdata	ENDS
;	COMDAT xdata
xdata	SEGMENT
$unwind$??$use_facet@V?$ctype@_W@std@@@std@@YAAEBV?$ctype@_W@0@AEBVlocale@0@@Z DD 033819H
	DD	014010dH
	DD	07006H
	DD	imagerel __GSHandlerCheck_EH4
	DD	imagerel $cppxdata$??$use_facet@V?$ctype@_W@std@@@std@@YAAEBV?$ctype@_W@0@AEBVlocale@0@@Z
	DD	09aH
xdata	ENDS
;	COMDAT CONST
CONST	SEGMENT
??$use_facet@V?$ctype@_W@std@@@std@@YAAEBV?$ctype@_W@0@AEBVlocale@0@@Z$rtcName$0 DB 05fH ; std::use_facet<std::ctype<wchar_t> >
	DB	04cH
	DB	06fH
	DB	063H
	DB	06bH
	DB	00H
	ORG $+2
??$use_facet@V?$ctype@_W@std@@@std@@YAAEBV?$ctype@_W@0@AEBVlocale@0@@Z$rtcName$1 DB 05fH ; std::use_facet<std::ctype<wchar_t> >
	DB	050H
	DB	073H
	DB	061H
	DB	076H
	DB	065H
	DB	00H
	ORG $+1
??$use_facet@V?$ctype@_W@std@@@std@@YAAEBV?$ctype@_W@0@AEBVlocale@0@@Z$rtcName$2 DB 05fH ; std::use_facet<std::ctype<wchar_t> >
	DB	050H
	DB	073H
	DB	061H
	DB	076H
	DB	065H
	DB	05fH
	DB	067H
	DB	075H
	DB	061H
	DB	072H
	DB	064H
	DB	00H
	ORG $+3
??$use_facet@V?$ctype@_W@std@@@std@@YAAEBV?$ctype@_W@0@AEBVlocale@0@@Z$rtcVarDesc DD 078H ; std::use_facet<std::ctype<wchar_t> >
	DD	08H
	DQ	FLAT:??$use_facet@V?$ctype@_W@std@@@std@@YAAEBV?$ctype@_W@0@AEBVlocale@0@@Z$rtcName$2
	DD	048H
	DD	08H
	DQ	FLAT:??$use_facet@V?$ctype@_W@std@@@std@@YAAEBV?$ctype@_W@0@AEBVlocale@0@@Z$rtcName$1
	DD	024H
	DD	04H
	DQ	FLAT:??$use_facet@V?$ctype@_W@std@@@std@@YAAEBV?$ctype@_W@0@AEBVlocale@0@@Z$rtcName$0
	ORG $+144
??$use_facet@V?$ctype@_W@std@@@std@@YAAEBV?$ctype@_W@0@AEBVlocale@0@@Z$rtcFrameData DD 03H ; std::use_facet<std::ctype<wchar_t> >
	DD	00H
	DQ	FLAT:??$use_facet@V?$ctype@_W@std@@@std@@YAAEBV?$ctype@_W@0@AEBVlocale@0@@Z$rtcVarDesc
CONST	ENDS
;	COMDAT xdata
xdata	SEGMENT
$unwind$??$?8_WU?$char_traits@_W@std@@V?$allocator@_W@1@@std@@YA_NAEBV?$basic_string@_WU?$char_traits@_W@std@@V?$allocator@_W@2@@0@QEB_W@Z DD 020f01H
	DD	0700b320fH
xdata	ENDS
;	COMDAT xdata
xdata	SEGMENT
$unwind$??$?5_WU?$char_traits@_W@std@@V?$allocator@_W@1@@std@@YAAEAV?$basic_istream@_WU?$char_traits@_W@std@@@0@AEAV10@AEAV?$basic_string@_WU?$char_traits@_W@std@@V?$allocator@_W@2@@0@@Z DD 020f01H
	DD	0700b320fH
xdata	ENDS
;	COMDAT voltbl
voltbl	SEGMENT
_volmd	DB	00H
	DB	05H
voltbl	ENDS
;	COMDAT voltbl
voltbl	SEGMENT
_volmd	DB	00H
	DB	05H
voltbl	ENDS
;	COMDAT voltbl
voltbl	SEGMENT
_volmd	DB	00H
	DB	05H
voltbl	ENDS
;	COMDAT voltbl
voltbl	SEGMENT
_volmd	DW	035H
	DW	03a7H
voltbl	ENDS
;	COMDAT xdata
xdata	SEGMENT
$unwind$?catch$2@?0???$?5_WU?$char_traits@_W@std@@V?$allocator@_W@1@@std@@YAAEAV?$basic_istream@_WU?$char_traits@_W@std@@@0@$$QEAV10@AEAV?$basic_string@_WU?$char_traits@_W@std@@V?$allocator@_W@2@@0@@Z@4HA DD 031001H
	DD	0700c4210H
	DD	0500bH
xdata	ENDS
;	COMDAT xdata
xdata	SEGMENT
$unwind$?dtor$1@?0???$?5_WU?$char_traits@_W@std@@V?$allocator@_W@1@@std@@YAAEAV?$basic_istream@_WU?$char_traits@_W@std@@@0@$$QEAV10@AEAV?$basic_string@_WU?$char_traits@_W@std@@V?$allocator@_W@2@@0@@Z@4HA DD 031001H
	DD	0700c4210H
	DD	0500bH
xdata	ENDS
;	COMDAT xdata
xdata	SEGMENT
$unwind$?dtor$0@?0???$?5_WU?$char_traits@_W@std@@V?$allocator@_W@1@@std@@YAAEAV?$basic_istream@_WU?$char_traits@_W@std@@@0@$$QEAV10@AEAV?$basic_string@_WU?$char_traits@_W@std@@V?$allocator@_W@2@@0@@Z@4HA DD 031001H
	DD	0700c4210H
	DD	0500bH
xdata	ENDS
;	COMDAT xdata
xdata	SEGMENT
$ip2state$??$?5_WU?$char_traits@_W@std@@V?$allocator@_W@1@@std@@YAAEAV?$basic_istream@_WU?$char_traits@_W@std@@@0@$$QEAV10@AEAV?$basic_string@_WU?$char_traits@_W@std@@V?$allocator@_W@2@@0@@Z DB 0eH
	DB	00H
	DB	00H
	DB	0c0H
	DB	02H
	DB	0b6H
	DB	04H
	DB	'$'
	DB	02H
	DB	':'
	DB	06H
	DB	'm', 08H
	DB	02H
	DB	0f6H
	DB	00H
xdata	ENDS
;	COMDAT xdata
xdata	SEGMENT
$handlerMap$??$?5_WU?$char_traits@_W@std@@V?$allocator@_W@1@@std@@YAAEAV?$basic_istream@_WU?$char_traits@_W@std@@@0@$$QEAV10@AEAV?$basic_string@_WU?$char_traits@_W@std@@V?$allocator@_W@2@@0@@Z DB 02H
	DB	01H
	DB	080H
	DD	imagerel ?catch$2@?0???$?5_WU?$char_traits@_W@std@@V?$allocator@_W@1@@std@@YAAEAV?$basic_istream@_WU?$char_traits@_W@std@@@0@$$QEAV10@AEAV?$basic_string@_WU?$char_traits@_W@std@@V?$allocator@_W@2@@0@@Z@4HA
xdata	ENDS
;	COMDAT xdata
xdata	SEGMENT
$tryMap$??$?5_WU?$char_traits@_W@std@@V?$allocator@_W@1@@std@@YAAEAV?$basic_istream@_WU?$char_traits@_W@std@@@0@$$QEAV10@AEAV?$basic_string@_WU?$char_traits@_W@std@@V?$allocator@_W@2@@0@@Z DB 02H
	DB	04H
	DB	04H
	DB	06H
	DD	imagerel $handlerMap$??$?5_WU?$char_traits@_W@std@@V?$allocator@_W@1@@std@@YAAEAV?$basic_istream@_WU?$char_traits@_W@std@@@0@$$QEAV10@AEAV?$basic_string@_WU?$char_traits@_W@std@@V?$allocator@_W@2@@0@@Z
xdata	ENDS
;	COMDAT xdata
xdata	SEGMENT
$stateUnwindMap$??$?5_WU?$char_traits@_W@std@@V?$allocator@_W@1@@std@@YAAEAV?$basic_istream@_WU?$char_traits@_W@std@@@0@$$QEAV10@AEAV?$basic_string@_WU?$char_traits@_W@std@@V?$allocator@_W@2@@0@@Z DB 08H
	DB	0eH
	DD	imagerel ?dtor$0@?0???$?5_WU?$char_traits@_W@std@@V?$allocator@_W@1@@std@@YAAEAV?$basic_istream@_WU?$char_traits@_W@std@@@0@$$QEAV10@AEAV?$basic_string@_WU?$char_traits@_W@std@@V?$allocator@_W@2@@0@@Z@4HA
	DB	02eH
	DD	imagerel ?dtor$1@?0???$?5_WU?$char_traits@_W@std@@V?$allocator@_W@1@@std@@YAAEAV?$basic_istream@_WU?$char_traits@_W@std@@@0@$$QEAV10@AEAV?$basic_string@_WU?$char_traits@_W@std@@V?$allocator@_W@2@@0@@Z@4HA
	DB	050H
	DB	058H
xdata	ENDS
;	COMDAT xdata
xdata	SEGMENT
$cppxdata$??$?5_WU?$char_traits@_W@std@@V?$allocator@_W@1@@std@@YAAEAV?$basic_istream@_WU?$char_traits@_W@std@@@0@$$QEAV10@AEAV?$basic_string@_WU?$char_traits@_W@std@@V?$allocator@_W@2@@0@@Z DB 038H
	DD	imagerel $stateUnwindMap$??$?5_WU?$char_traits@_W@std@@V?$allocator@_W@1@@std@@YAAEAV?$basic_istream@_WU?$char_traits@_W@std@@@0@$$QEAV10@AEAV?$basic_string@_WU?$char_traits@_W@std@@V?$allocator@_W@2@@0@@Z
	DD	imagerel $tryMap$??$?5_WU?$char_traits@_W@std@@V?$allocator@_W@1@@std@@YAAEAV?$basic_istream@_WU?$char_traits@_W@std@@@0@$$QEAV10@AEAV?$basic_string@_WU?$char_traits@_W@std@@V?$allocator@_W@2@@0@@Z
	DD	imagerel $ip2state$??$?5_WU?$char_traits@_W@std@@V?$allocator@_W@1@@std@@YAAEAV?$basic_istream@_WU?$char_traits@_W@std@@@0@$$QEAV10@AEAV?$basic_string@_WU?$char_traits@_W@std@@V?$allocator@_W@2@@0@@Z
xdata	ENDS
;	COMDAT xdata
xdata	SEGMENT
$unwind$??$?5_WU?$char_traits@_W@std@@V?$allocator@_W@1@@std@@YAAEAV?$basic_istream@_WU?$char_traits@_W@std@@@0@$$QEAV10@AEAV?$basic_string@_WU?$char_traits@_W@std@@V?$allocator@_W@2@@0@@Z DD 033d19H
	DD	0200112H
	DD	0700bH
	DD	imagerel __GSHandlerCheck_EH4
	DD	imagerel $cppxdata$??$?5_WU?$char_traits@_W@std@@V?$allocator@_W@1@@std@@YAAEAV?$basic_istream@_WU?$char_traits@_W@std@@@0@$$QEAV10@AEAV?$basic_string@_WU?$char_traits@_W@std@@V?$allocator@_W@2@@0@@Z
	DD	0fbH
xdata	ENDS
;	COMDAT CONST
CONST	SEGMENT
??$?5_WU?$char_traits@_W@std@@V?$allocator@_W@1@@std@@YAAEAV?$basic_istream@_WU?$char_traits@_W@std@@@0@$$QEAV10@AEAV?$basic_string@_WU?$char_traits@_W@std@@V?$allocator@_W@2@@0@@Z$rtcName$0 DB 05fH ; std::operator>><wchar_t,std::char_traits<wchar_t>,std::allocator<wchar_t> >
	DB	04fH
	DB	06bH
	DB	00H
??$?5_WU?$char_traits@_W@std@@V?$allocator@_W@1@@std@@YAAEAV?$basic_istream@_WU?$char_traits@_W@std@@@0@$$QEAV10@AEAV?$basic_string@_WU?$char_traits@_W@std@@V?$allocator@_W@2@@0@@Z$rtcName$1 DB 05fH ; std::operator>><wchar_t,std::char_traits<wchar_t>,std::allocator<wchar_t> >
	DB	04dH
	DB	065H
	DB	074H
	DB	061H
	DB	00H
	ORG $+6
??$?5_WU?$char_traits@_W@std@@V?$allocator@_W@1@@std@@YAAEAV?$basic_istream@_WU?$char_traits@_W@std@@@0@$$QEAV10@AEAV?$basic_string@_WU?$char_traits@_W@std@@V?$allocator@_W@2@@0@@Z$rtcVarDesc DD 074H ; std::operator>><wchar_t,std::char_traits<wchar_t>,std::allocator<wchar_t> >
	DD	02H
	DQ	FLAT:??$?5_WU?$char_traits@_W@std@@V?$allocator@_W@1@@std@@YAAEAV?$basic_istream@_WU?$char_traits@_W@std@@@0@$$QEAV10@AEAV?$basic_string@_WU?$char_traits@_W@std@@V?$allocator@_W@2@@0@@Z$rtcName$1
	DD	038H
	DD	010H
	DQ	FLAT:??$?5_WU?$char_traits@_W@std@@V?$allocator@_W@1@@std@@YAAEAV?$basic_istream@_WU?$char_traits@_W@std@@@0@$$QEAV10@AEAV?$basic_string@_WU?$char_traits@_W@std@@V?$allocator@_W@2@@0@@Z$rtcName$0
	ORG $+96
??$?5_WU?$char_traits@_W@std@@V?$allocator@_W@1@@std@@YAAEAV?$basic_istream@_WU?$char_traits@_W@std@@@0@$$QEAV10@AEAV?$basic_string@_WU?$char_traits@_W@std@@V?$allocator@_W@2@@0@@Z$rtcFrameData DD 02H ; std::operator>><wchar_t,std::char_traits<wchar_t>,std::allocator<wchar_t> >
	DD	00H
	DQ	FLAT:??$?5_WU?$char_traits@_W@std@@V?$allocator@_W@1@@std@@YAAEAV?$basic_istream@_WU?$char_traits@_W@std@@@0@$$QEAV10@AEAV?$basic_string@_WU?$char_traits@_W@std@@V?$allocator@_W@2@@0@@Z$rtcVarDesc
CONST	ENDS
voltbl	SEGMENT
_volmd	DD	0ffffffffH
	DDSymXIndex: 	FLAT:main$dtor$0
	DD	00H
	DD	05H
voltbl	ENDS
;	COMDAT xdata
xdata	SEGMENT
$unwind$??$endl@_WU?$char_traits@_W@std@@@std@@YAAEAV?$basic_ostream@_WU?$char_traits@_W@std@@@0@AEAV10@@Z DD 020a01H
	DD	07006320aH
xdata	ENDS
;	COMDAT voltbl
voltbl	SEGMENT
_volmd	DB	00H
	DB	05H
voltbl	ENDS
;	COMDAT voltbl
voltbl	SEGMENT
_volmd	DB	00H
	DB	05H
voltbl	ENDS
;	COMDAT voltbl
voltbl	SEGMENT
_volmd	DW	035H
	DW	0421H
voltbl	ENDS
;	COMDAT xdata
xdata	SEGMENT
$unwind$?catch$1@?0???$?6_WU?$char_traits@_W@std@@@std@@YAAEAV?$basic_ostream@_WU?$char_traits@_W@std@@@0@AEAV10@PEB_W@Z@4HA DD 031001H
	DD	0700c4210H
	DD	0500bH
xdata	ENDS
;	COMDAT xdata
xdata	SEGMENT
$unwind$?dtor$0@?0???$?6_WU?$char_traits@_W@std@@@std@@YAAEAV?$basic_ostream@_WU?$char_traits@_W@std@@@0@AEAV10@PEB_W@Z@4HA DD 031001H
	DD	0700c4210H
	DD	0500bH
xdata	ENDS
;	COMDAT xdata
xdata	SEGMENT
$ip2state$??$?6_WU?$char_traits@_W@std@@@std@@YAAEAV?$basic_ostream@_WU?$char_traits@_W@std@@@0@AEAV10@PEB_W@Z DB 0aH
	DB	00H
	DB	00H
	DB	'A', 04H
	DB	02H
	DB	'B'
	DB	04H
	DB	'A', 0aH
	DB	02H
	DB	'x'
	DB	00H
xdata	ENDS
;	COMDAT xdata
xdata	SEGMENT
$handlerMap$??$?6_WU?$char_traits@_W@std@@@std@@YAAEAV?$basic_ostream@_WU?$char_traits@_W@std@@@0@AEAV10@PEB_W@Z DB 02H
	DB	01H
	DB	080H
	DD	imagerel ?catch$1@?0???$?6_WU?$char_traits@_W@std@@@std@@YAAEAV?$basic_ostream@_WU?$char_traits@_W@std@@@0@AEAV10@PEB_W@Z@4HA
xdata	ENDS
;	COMDAT xdata
xdata	SEGMENT
$tryMap$??$?6_WU?$char_traits@_W@std@@@std@@YAAEAV?$basic_ostream@_WU?$char_traits@_W@std@@@0@AEAV10@PEB_W@Z DB 02H
	DB	02H
	DB	02H
	DB	04H
	DD	imagerel $handlerMap$??$?6_WU?$char_traits@_W@std@@@std@@YAAEAV?$basic_ostream@_WU?$char_traits@_W@std@@@0@AEAV10@PEB_W@Z
xdata	ENDS
;	COMDAT xdata
xdata	SEGMENT
$stateUnwindMap$??$?6_WU?$char_traits@_W@std@@@std@@YAAEAV?$basic_ostream@_WU?$char_traits@_W@std@@@0@AEAV10@PEB_W@Z DB 06H
	DB	0eH
	DD	imagerel ?dtor$0@?0???$?6_WU?$char_traits@_W@std@@@std@@YAAEAV?$basic_ostream@_WU?$char_traits@_W@std@@@0@AEAV10@PEB_W@Z@4HA
	DB	028H
	DB	030H
xdata	ENDS
;	COMDAT xdata
xdata	SEGMENT
$cppxdata$??$?6_WU?$char_traits@_W@std@@@std@@YAAEAV?$basic_ostream@_WU?$char_traits@_W@std@@@0@AEAV10@PEB_W@Z DB 038H
	DD	imagerel $stateUnwindMap$??$?6_WU?$char_traits@_W@std@@@std@@YAAEAV?$basic_ostream@_WU?$char_traits@_W@std@@@0@AEAV10@PEB_W@Z
	DD	imagerel $tryMap$??$?6_WU?$char_traits@_W@std@@@std@@YAAEAV?$basic_ostream@_WU?$char_traits@_W@std@@@0@AEAV10@PEB_W@Z
	DD	imagerel $ip2state$??$?6_WU?$char_traits@_W@std@@@std@@YAAEAV?$basic_ostream@_WU?$char_traits@_W@std@@@0@AEAV10@PEB_W@Z
xdata	ENDS
;	COMDAT xdata
xdata	SEGMENT
$unwind$??$?6_WU?$char_traits@_W@std@@@std@@YAAEAV?$basic_ostream@_WU?$char_traits@_W@std@@@0@AEAV10@PEB_W@Z DD 033d19H
	DD	01a0112H
	DD	0700bH
	DD	imagerel __GSHandlerCheck_EH4
	DD	imagerel $cppxdata$??$?6_WU?$char_traits@_W@std@@@std@@YAAEAV?$basic_ostream@_WU?$char_traits@_W@std@@@0@AEAV10@PEB_W@Z
	DD	0cbH
xdata	ENDS
;	COMDAT CONST
CONST	SEGMENT
??$?6_WU?$char_traits@_W@std@@@std@@YAAEAV?$basic_ostream@_WU?$char_traits@_W@std@@@0@AEAV10@PEB_W@Z$rtcName$0 DB 05fH ; std::operator<<<wchar_t,std::char_traits<wchar_t> >
	DB	04fH
	DB	06bH
	DB	00H
	ORG $+12
??$?6_WU?$char_traits@_W@std@@@std@@YAAEAV?$basic_ostream@_WU?$char_traits@_W@std@@@0@AEAV10@PEB_W@Z$rtcVarDesc DD 048H ; std::operator<<<wchar_t,std::char_traits<wchar_t> >
	DD	010H
	DQ	FLAT:??$?6_WU?$char_traits@_W@std@@@std@@YAAEAV?$basic_ostream@_WU?$char_traits@_W@std@@@0@AEAV10@PEB_W@Z$rtcName$0
	ORG $+48
??$?6_WU?$char_traits@_W@std@@@std@@YAAEAV?$basic_ostream@_WU?$char_traits@_W@std@@@0@AEAV10@PEB_W@Z$rtcFrameData DD 01H ; std::operator<<<wchar_t,std::char_traits<wchar_t> >
	DD	00H
	DQ	FLAT:??$?6_WU?$char_traits@_W@std@@@std@@YAAEAV?$basic_ostream@_WU?$char_traits@_W@std@@@0@AEAV10@PEB_W@Z$rtcVarDesc
CONST	ENDS
voltbl	SEGMENT
_volmd	DD	0ffffffffH
	DDSymXIndex: 	FLAT:main
	DD	025H
	DD	0231H
_volmd	DD	0ffffffffH
	DDSymXIndex: 	FLAT:?ReadResult@@YAXPEAU_iobuf@@@Z
	DD	02aH
	DD	0183H
voltbl	ENDS
CONST	SEGMENT
?ReadResult@@YAXPEAU_iobuf@@@Z$rtcName$0 DB 076H	; ReadResult
	DB	00H
	ORG $+14
?ReadResult@@YAXPEAU_iobuf@@@Z$rtcVarDesc DD 028H	; ReadResult
	DD	08H
	DQ	FLAT:?ReadResult@@YAXPEAU_iobuf@@@Z$rtcName$0
	ORG $+48
?ReadResult@@YAXPEAU_iobuf@@@Z$rtcFrameData DD 01H	; ReadResult
	DD	00H
	DQ	FLAT:?ReadResult@@YAXPEAU_iobuf@@@Z$rtcVarDesc
main$rtcName$0 DB 06dH
	DB	06fH
	DB	064H
	DB	00H
main$rtcName$1 DB 073H
	DB	00H
	ORG $+2
main$rtcFrameData DD 02H
	DD	00H
	DQ	FLAT:main$rtcVarDesc
	ORG $+8
main$rtcVarDesc DD 068H
	DD	028H
	DQ	FLAT:main$rtcName$1
	DD	028H
	DD	010H
	DQ	FLAT:main$rtcName$0
CONST	ENDS
xdata	SEGMENT
$unwind$?WriteModel@@YAXPEAU_iobuf@@UModel@@@Z DD 020f01H
	DD	0700b320fH
$unwind$?ReadResult@@YAXPEAU_iobuf@@@Z DD 022f19H
	DD	07006920aH
	DD	imagerel __GSHandlerCheck
	DD	040H
$unwind$?SetLocale@@YAXXZ DD 020601H
	DD	070023206H
$unwind$main DD	042d19H
	DD	01b010aH
	DD	060027003H
	DD	imagerel __GSHandlerCheck_EH4
	DD	imagerel $cppxdata$main
	DD	0c2H
$cppxdata$main DB 028H
	DD	imagerel $stateUnwindMap$main
	DD	imagerel $ip2state$main
$stateUnwindMap$main DB 02H
	DB	0eH
	DD	imagerel main$dtor$0
$ip2state$main DB 06H
	DB	00H
	DB	00H
	DB	0f6H
	DB	02H
	DB	']', 06H
	DB	00H
	ORG $+1
$unwind$main$dtor$0 DD 031001H
	DD	0700c4210H
	DD	0500bH
xdata	ENDS
;	COMDAT xdata
xdata	SEGMENT
$unwind$??$_Getvals@_W@?$time_get@_WV?$istreambuf_iterator@_WU?$char_traits@_W@std@@@std@@@std@@IEAAX_WAEBV_Locinfo@1@@Z DD 031501H
	DD	07011c215H
	DD	06010H
xdata	ENDS
;	COMDAT xdata
xdata	SEGMENT
$unwind$??$_Getvals@_W@?$time_get@DV?$istreambuf_iterator@DU?$char_traits@D@std@@@std@@@std@@IEAAX_WAEBV_Locinfo@1@@Z DD 031501H
	DD	07011c215H
	DD	06010H
xdata	ENDS
;	COMDAT xdata
xdata	SEGMENT
$unwind$??$_Maklocstr@D@std@@YAPEADPEBDPEADAEBU_Cvtvec@@@Z DD 021401H
	DD	070109214H
xdata	ENDS
;	COMDAT xdata
xdata	SEGMENT
$unwind$?_Maklocwcs@std@@YAPEA_WPEB_W@Z DD 020a01H
	DD	07006720aH
xdata	ENDS
;	COMDAT voltbl
voltbl	SEGMENT
_volmd	DW	03aH
	DW	0238H
voltbl	ENDS
;	COMDAT xdata
xdata	SEGMENT
$unwind$??$_Maklocstr@_W@std@@YAPEA_WPEBDPEA_WAEBU_Cvtvec@@@Z DD 034219H
	DD	01c0117H
	DD	07010H
	DD	imagerel __GSHandlerCheck
	DD	0d0H
xdata	ENDS
;	COMDAT CONST
CONST	SEGMENT
??$_Maklocstr@_W@std@@YAPEA_WPEBDPEA_WAEBU_Cvtvec@@@Z$rtcName$0 DB 05fH ; std::_Maklocstr<wchar_t>
	DB	057H
	DB	063H
	DB	00H
??$_Maklocstr@_W@std@@YAPEA_WPEBDPEA_WAEBU_Cvtvec@@@Z$rtcName$1 DB 05fH ; std::_Maklocstr<wchar_t>
	DB	04dH
	DB	062H
	DB	073H
	DB	074H
	DB	031H
	DB	00H
	ORG $+1
??$_Maklocstr@_W@std@@YAPEA_WPEBDPEA_WAEBU_Cvtvec@@@Z$rtcName$2 DB 05fH ; std::_Maklocstr<wchar_t>
	DB	04dH
	DB	062H
	DB	073H
	DB	074H
	DB	032H
	DB	00H
	ORG $+13
??$_Maklocstr@_W@std@@YAPEA_WPEBDPEA_WAEBU_Cvtvec@@@Z$rtcVarDesc DD 0b8H ; std::_Maklocstr<wchar_t>
	DD	08H
	DQ	FLAT:??$_Maklocstr@_W@std@@YAPEA_WPEBDPEA_WAEBU_Cvtvec@@@Z$rtcName$2
	DD	088H
	DD	08H
	DQ	FLAT:??$_Maklocstr@_W@std@@YAPEA_WPEBDPEA_WAEBU_Cvtvec@@@Z$rtcName$1
	DD	064H
	DD	02H
	DQ	FLAT:??$_Maklocstr@_W@std@@YAPEA_WPEBDPEA_WAEBU_Cvtvec@@@Z$rtcName$0
	ORG $+144
??$_Maklocstr@_W@std@@YAPEA_WPEBDPEA_WAEBU_Cvtvec@@@Z$rtcFrameData DD 03H ; std::_Maklocstr<wchar_t>
	DD	00H
	DQ	FLAT:??$_Maklocstr@_W@std@@YAPEA_WPEBDPEA_WAEBU_Cvtvec@@@Z$rtcVarDesc
CONST	ENDS
;	COMDAT xdata
xdata	SEGMENT
$unwind$?_Getfacet@locale@std@@QEBAPEBVfacet@12@_K@Z DD 020f01H
	DD	0700b720fH
xdata	ENDS
;	COMDAT xdata
xdata	SEGMENT
$unwind$??1locale@std@@QEAA@XZ DD 020a01H
	DD	07006520aH
xdata	ENDS
;	COMDAT xdata
xdata	SEGMENT
$unwind$?_Throw_bad_cast@std@@YAXXZ DD 020601H
	DD	070027206H
xdata	ENDS
;	COMDAT xdata
xdata	SEGMENT
$unwind$??_Gbad_cast@std@@UEAAPEAXI@Z DD 020e01H
	DD	0700a320eH
xdata	ENDS
;	COMDAT xdata
xdata	SEGMENT
$unwind$??0bad_cast@std@@QEAA@AEBV01@@Z DD 020f01H
	DD	0700b320fH
xdata	ENDS
;	COMDAT xdata
xdata	SEGMENT
$unwind$??1bad_cast@std@@UEAA@XZ DD 020a01H
	DD	07006320aH
xdata	ENDS
;	COMDAT xdata
xdata	SEGMENT
$unwind$??0bad_cast@std@@QEAA@XZ DD 020a01H
	DD	07006320aH
xdata	ENDS
;	COMDAT xdata
xdata	SEGMENT
$unwind$??1?$_Compressed_pair@V?$allocator@_W@std@@V?$_String_val@U?$_Simple_types@_W@std@@@2@$00@std@@QEAA@XZ DD 020a01H
	DD	07006320aH
xdata	ENDS
;	COMDAT xdata
xdata	SEGMENT
$unwind$?_Get_first@?$_Compressed_pair@V?$allocator@_W@std@@V?$_String_val@U?$_Simple_types@_W@std@@@2@$00@std@@QEBAAEBV?$allocator@_W@2@XZ DD 010601H
	DD	07006H
xdata	ENDS
;	COMDAT xdata
xdata	SEGMENT
$unwind$?_Get_first@?$_Compressed_pair@V?$allocator@_W@std@@V?$_String_val@U?$_Simple_types@_W@std@@@2@$00@std@@QEAAAEAV?$allocator@_W@2@XZ DD 010601H
	DD	07006H
xdata	ENDS
;	COMDAT xdata
xdata	SEGMENT
$unwind$?_Getal@?$basic_string@_WU?$char_traits@_W@std@@V?$allocator@_W@2@@std@@AEBAAEBV?$allocator@_W@2@XZ DD 020a01H
	DD	07006320aH
xdata	ENDS
;	COMDAT xdata
xdata	SEGMENT
$unwind$?_Getal@?$basic_string@_WU?$char_traits@_W@std@@V?$allocator@_W@2@@std@@AEAAAEAV?$allocator@_W@2@XZ DD 020a01H
	DD	07006320aH
xdata	ENDS
;	COMDAT xdata
xdata	SEGMENT
$ip2state$?_Tidy_deallocate@?$basic_string@_WU?$char_traits@_W@std@@V?$allocator@_W@2@@std@@AEAAXXZ DB 02H
	DB	00H
	DB	00H
xdata	ENDS
;	COMDAT xdata
xdata	SEGMENT
$cppxdata$?_Tidy_deallocate@?$basic_string@_WU?$char_traits@_W@std@@V?$allocator@_W@2@@std@@AEAAXXZ DB 060H
	DD	imagerel $ip2state$?_Tidy_deallocate@?$basic_string@_WU?$char_traits@_W@std@@V?$allocator@_W@2@@std@@AEAAXXZ
xdata	ENDS
;	COMDAT xdata
xdata	SEGMENT
$unwind$?_Tidy_deallocate@?$basic_string@_WU?$char_traits@_W@std@@V?$allocator@_W@2@@std@@AEAAXXZ DD 020a19H
	DD	07006720aH
	DD	imagerel __CxxFrameHandler4
	DD	imagerel $cppxdata$?_Tidy_deallocate@?$basic_string@_WU?$char_traits@_W@std@@V?$allocator@_W@2@@std@@AEAAXXZ
xdata	ENDS
;	COMDAT xdata
xdata	SEGMENT
$unwind$?_Tidy_init@?$basic_string@_WU?$char_traits@_W@std@@V?$allocator@_W@2@@std@@AEAAXXZ DD 020a01H
	DD	07006520aH
xdata	ENDS
;	COMDAT xdata
xdata	SEGMENT
$unwind$?_Eos@?$basic_string@_WU?$char_traits@_W@std@@V?$allocator@_W@2@@std@@AEAAX_K@Z DD 020f01H
	DD	0700b520fH
xdata	ENDS
;	COMDAT xdata
xdata	SEGMENT
$unwind$?_Calculate_growth@?$basic_string@_WU?$char_traits@_W@std@@V?$allocator@_W@2@@std@@AEBA_K_K@Z DD 020f01H
	DD	0700b320fH
xdata	ENDS
;	COMDAT voltbl
voltbl	SEGMENT
_volmd	DB	034H
	DB	0c8H
voltbl	ENDS
;	COMDAT xdata
xdata	SEGMENT
$unwind$?_Calculate_growth@?$basic_string@_WU?$char_traits@_W@std@@V?$allocator@_W@2@@std@@CA_K_K00@Z DD 023919H
	DD	070109214H
	DD	imagerel __GSHandlerCheck
	DD	048H
xdata	ENDS
;	COMDAT CONST
CONST	SEGMENT
?_Calculate_growth@?$basic_string@_WU?$char_traits@_W@std@@V?$allocator@_W@2@@std@@CA_K_K00@Z$rtcName$0 DB 05fH ; std::basic_string<wchar_t,std::char_traits<wchar_t>,std::allocator<wchar_t> >::_Calculate_growth
	DB	04dH
	DB	061H
	DB	073H
	DB	06bH
	DB	065H
	DB	064H
	DB	00H
	ORG $+8
?_Calculate_growth@?$basic_string@_WU?$char_traits@_W@std@@V?$allocator@_W@2@@std@@CA_K_K00@Z$rtcVarDesc DD 028H ; std::basic_string<wchar_t,std::char_traits<wchar_t>,std::allocator<wchar_t> >::_Calculate_growth
	DD	08H
	DQ	FLAT:?_Calculate_growth@?$basic_string@_WU?$char_traits@_W@std@@V?$allocator@_W@2@@std@@CA_K_K00@Z$rtcName$0
	ORG $+48
?_Calculate_growth@?$basic_string@_WU?$char_traits@_W@std@@V?$allocator@_W@2@@std@@CA_K_K00@Z$rtcFrameData DD 01H ; std::basic_string<wchar_t,std::char_traits<wchar_t>,std::allocator<wchar_t> >::_Calculate_growth
	DD	00H
	DQ	FLAT:?_Calculate_growth@?$basic_string@_WU?$char_traits@_W@std@@V?$allocator@_W@2@@std@@CA_K_K00@Z$rtcVarDesc
CONST	ENDS
;	COMDAT xdata
xdata	SEGMENT
$unwind$?_Equal@?$basic_string@_WU?$char_traits@_W@std@@V?$allocator@_W@2@@std@@QEBA_NQEB_W@Z DD 020f01H
	DD	0700b520fH
xdata	ENDS
;	COMDAT voltbl
voltbl	SEGMENT
_volmd	DB	02dH
	DB	0aaH
voltbl	ENDS
;	COMDAT xdata
xdata	SEGMENT
$unwind$?max_size@?$basic_string@_WU?$char_traits@_W@std@@V?$allocator@_W@2@@std@@QEBA_KXZ DD 023219H
	DD	07006d20aH
	DD	imagerel __GSHandlerCheck
	DD	060H
xdata	ENDS
;	COMDAT CONST
CONST	SEGMENT
?max_size@?$basic_string@_WU?$char_traits@_W@std@@V?$allocator@_W@2@@std@@QEBA_KXZ$rtcName$0 DB 05fH ; std::basic_string<wchar_t,std::char_traits<wchar_t>,std::allocator<wchar_t> >::max_size
	DB	041H
	DB	06cH
	DB	06cH
	DB	06fH
	DB	063H
	DB	05fH
	DB	06dH
	DB	061H
	DB	078H
	DB	00H
	ORG $+5
?max_size@?$basic_string@_WU?$char_traits@_W@std@@V?$allocator@_W@2@@std@@QEBA_KXZ$rtcVarDesc DD 028H ; std::basic_string<wchar_t,std::char_traits<wchar_t>,std::allocator<wchar_t> >::max_size
	DD	08H
	DQ	FLAT:?max_size@?$basic_string@_WU?$char_traits@_W@std@@V?$allocator@_W@2@@std@@QEBA_KXZ$rtcName$0
	ORG $+48
?max_size@?$basic_string@_WU?$char_traits@_W@std@@V?$allocator@_W@2@@std@@QEBA_KXZ$rtcFrameData DD 01H ; std::basic_string<wchar_t,std::char_traits<wchar_t>,std::allocator<wchar_t> >::max_size
	DD	00H
	DQ	FLAT:?max_size@?$basic_string@_WU?$char_traits@_W@std@@V?$allocator@_W@2@@std@@QEBA_KXZ$rtcVarDesc
CONST	ENDS
;	COMDAT xdata
xdata	SEGMENT
$unwind$?push_back@?$basic_string@_WU?$char_traits@_W@std@@V?$allocator@_W@2@@std@@QEAAX_W@Z DD 020f01H
	DD	0700b720fH
xdata	ENDS
;	COMDAT xdata
xdata	SEGMENT
$unwind$?erase@?$basic_string@_WU?$char_traits@_W@std@@V?$allocator@_W@2@@std@@QEAAAEAV12@_K@Z DD 020f01H
	DD	0700b320fH
xdata	ENDS
;	COMDAT voltbl
voltbl	SEGMENT
_volmd	DB	02aH
	DB	09eH
voltbl	ENDS
;	COMDAT xdata
xdata	SEGMENT
$unwind$??1?$basic_string@_WU?$char_traits@_W@std@@V?$allocator@_W@2@@std@@QEAA@XZ DD 022f19H
	DD	07006b20aH
	DD	imagerel __GSHandlerCheck
	DD	058H
xdata	ENDS
;	COMDAT CONST
CONST	SEGMENT
??1?$basic_string@_WU?$char_traits@_W@std@@V?$allocator@_W@2@@std@@QEAA@XZ$rtcName$0 DB 024H ; std::basic_string<wchar_t,std::char_traits<wchar_t>,std::allocator<wchar_t> >::~basic_string<wchar_t,std::char_traits<wchar_t>,std::allocator<wchar_t> >
	DB	053H
	DB	035H
	DB	00H
	ORG $+12
??1?$basic_string@_WU?$char_traits@_W@std@@V?$allocator@_W@2@@std@@QEAA@XZ$rtcVarDesc DD 034H ; std::basic_string<wchar_t,std::char_traits<wchar_t>,std::allocator<wchar_t> >::~basic_string<wchar_t,std::char_traits<wchar_t>,std::allocator<wchar_t> >
	DD	01H
	DQ	FLAT:??1?$basic_string@_WU?$char_traits@_W@std@@V?$allocator@_W@2@@std@@QEAA@XZ$rtcName$0
	ORG $+48
??1?$basic_string@_WU?$char_traits@_W@std@@V?$allocator@_W@2@@std@@QEAA@XZ$rtcFrameData DD 01H ; std::basic_string<wchar_t,std::char_traits<wchar_t>,std::allocator<wchar_t> >::~basic_string<wchar_t,std::char_traits<wchar_t>,std::allocator<wchar_t> >
	DD	00H
	DQ	FLAT:??1?$basic_string@_WU?$char_traits@_W@std@@V?$allocator@_W@2@@std@@QEAA@XZ$rtcVarDesc
CONST	ENDS
;	COMDAT xdata
xdata	SEGMENT
$ip2state$??0?$basic_string@_WU?$char_traits@_W@std@@V?$allocator@_W@2@@std@@QEAA@XZ DB 02H
	DB	00H
	DB	00H
xdata	ENDS
;	COMDAT xdata
xdata	SEGMENT
$cppxdata$??0?$basic_string@_WU?$char_traits@_W@std@@V?$allocator@_W@2@@std@@QEAA@XZ DB 060H
	DD	imagerel $ip2state$??0?$basic_string@_WU?$char_traits@_W@std@@V?$allocator@_W@2@@std@@QEAA@XZ
xdata	ENDS
;	COMDAT xdata
xdata	SEGMENT
$unwind$??0?$basic_string@_WU?$char_traits@_W@std@@V?$allocator@_W@2@@std@@QEAA@XZ DD 020a19H
	DD	07006520aH
	DD	imagerel __CxxFrameHandler4
	DD	imagerel $cppxdata$??0?$basic_string@_WU?$char_traits@_W@std@@V?$allocator@_W@2@@std@@QEAA@XZ
xdata	ENDS
;	COMDAT xdata
xdata	SEGMENT
$unwind$??1?$_String_val@U?$_Simple_types@_W@std@@@std@@QEAA@XZ DD 020a01H
	DD	07006320aH
xdata	ENDS
;	COMDAT xdata
xdata	SEGMENT
$unwind$??1_Bxty@?$_String_val@U?$_Simple_types@_W@std@@@std@@QEAA@XZ DD 010601H
	DD	07006H
xdata	ENDS
;	COMDAT xdata
xdata	SEGMENT
$unwind$??0_Bxty@?$_String_val@U?$_Simple_types@_W@std@@@std@@QEAA@XZ DD 010601H
	DD	07006H
xdata	ENDS
;	COMDAT xdata
xdata	SEGMENT
$unwind$?_Xran@?$_String_val@U?$_Simple_types@_W@std@@@std@@SAXXZ DD 020601H
	DD	070023206H
xdata	ENDS
;	COMDAT xdata
xdata	SEGMENT
$unwind$?_Check_offset@?$_String_val@U?$_Simple_types@_W@std@@@std@@QEBAX_K@Z DD 020f01H
	DD	0700b320fH
xdata	ENDS
;	COMDAT xdata
xdata	SEGMENT
$unwind$?_Large_string_engaged@?$_String_val@U?$_Simple_types@_W@std@@@std@@QEBA_NXZ DD 020a01H
	DD	07006120aH
xdata	ENDS
;	COMDAT xdata
xdata	SEGMENT
$unwind$?_Myptr@?$_String_val@U?$_Simple_types@_W@std@@@std@@QEBAPEB_WXZ DD 020a01H
	DD	07006520aH
xdata	ENDS
;	COMDAT xdata
xdata	SEGMENT
$unwind$?_Myptr@?$_String_val@U?$_Simple_types@_W@std@@@std@@QEAAPEA_WXZ DD 020a01H
	DD	07006520aH
xdata	ENDS
;	COMDAT xdata
xdata	SEGMENT
$unwind$??0?$_String_val@U?$_Simple_types@_W@std@@@std@@QEAA@XZ DD 020a01H
	DD	07006320aH
xdata	ENDS
;	COMDAT xdata
xdata	SEGMENT
$unwind$?max_size@?$_Default_allocator_traits@V?$allocator@_W@std@@@std@@SA_KAEBV?$allocator@_W@2@@Z DD 010601H
	DD	07006H
xdata	ENDS
;	COMDAT xdata
xdata	SEGMENT
$unwind$?allocate@?$allocator@_W@std@@QEAAPEA_W_K@Z DD 020f01H
	DD	0700b320fH
xdata	ENDS
;	COMDAT xdata
xdata	SEGMENT
$unwind$?deallocate@?$allocator@_W@std@@QEAAXQEA_W_K@Z DD 021401H
	DD	070103214H
xdata	ENDS
;	COMDAT xdata
xdata	SEGMENT
$unwind$??0?$allocator@_W@std@@QEAA@XZ DD 010601H
	DD	07006H
xdata	ENDS
;	COMDAT xdata
xdata	SEGMENT
$unwind$?_Xlen_string@std@@YAXXZ DD 020601H
	DD	070023206H
xdata	ENDS
;	COMDAT xdata
xdata	SEGMENT
$unwind$?eof@?$_WChar_traits@_W@std@@SAGXZ DD 010201H
	DD	07002H
xdata	ENDS
;	COMDAT xdata
xdata	SEGMENT
$unwind$?eq_int_type@?$_WChar_traits@_W@std@@SA_NAEBG0@Z DD 020f01H
	DD	0700b120fH
xdata	ENDS
;	COMDAT xdata
xdata	SEGMENT
$unwind$?to_char_type@?$_WChar_traits@_W@std@@SA_WAEBG@Z DD 010601H
	DD	07006H
xdata	ENDS
;	COMDAT xdata
xdata	SEGMENT
$unwind$?assign@?$_WChar_traits@_W@std@@SAXAEA_WAEB_W@Z DD 010b01H
	DD	0700bH
xdata	ENDS
;	COMDAT xdata
xdata	SEGMENT
$unwind$?length@?$_WChar_traits@_W@std@@SA_KPEB_W@Z DD 020a01H
	DD	07006320aH
xdata	ENDS
;	COMDAT xdata
xdata	SEGMENT
$unwind$?compare@?$_WChar_traits@_W@std@@SAHQEB_W0_K@Z DD 021401H
	DD	070103214H
xdata	ENDS
;	COMDAT xdata
xdata	SEGMENT
$unwind$?copy@?$_Char_traits@_WG@std@@SAPEA_WQEA_WQEB_W_K@Z DD 021401H
	DD	070103214H
xdata	ENDS
;	COMDAT xdata
xdata	SEGMENT
$unwind$??$_Construct_in_place@U_Container_proxy@std@@PEAU_Container_base12@2@@std@@YAXAEAU_Container_proxy@0@$$QEAPEAU_Container_base12@0@@Z DD 020f01H
	DD	0700b520fH
xdata	ENDS
;	COMDAT voltbl
voltbl	SEGMENT
_volmd	DB	02aH
	DB	063H
voltbl	ENDS
;	COMDAT xdata
xdata	SEGMENT
$unwind$?_Orphan_all_locked_v3@_Container_base12@std@@AEAAXXZ DD 022f19H
	DD	07006920aH
	DD	imagerel __GSHandlerCheck
	DD	040H
xdata	ENDS
;	COMDAT CONST
CONST	SEGMENT
?_Orphan_all_locked_v3@_Container_base12@std@@AEAAXXZ$rtcName$0 DB 05fH ; std::_Container_base12::_Orphan_all_locked_v3
	DB	04cH
	DB	06fH
	DB	063H
	DB	06bH
	DB	00H
	ORG $+10
?_Orphan_all_locked_v3@_Container_base12@std@@AEAAXXZ$rtcVarDesc DD 024H ; std::_Container_base12::_Orphan_all_locked_v3
	DD	04H
	DQ	FLAT:?_Orphan_all_locked_v3@_Container_base12@std@@AEAAXXZ$rtcName$0
	ORG $+48
?_Orphan_all_locked_v3@_Container_base12@std@@AEAAXXZ$rtcFrameData DD 01H ; std::_Container_base12::_Orphan_all_locked_v3
	DD	00H
	DQ	FLAT:?_Orphan_all_locked_v3@_Container_base12@std@@AEAAXXZ$rtcVarDesc
CONST	ENDS
;	COMDAT xdata
xdata	SEGMENT
$unwind$?_Orphan_all_unlocked_v3@_Container_base12@std@@AEAAXXZ DD 020a01H
	DD	07006120aH
xdata	ENDS
;	COMDAT xdata
xdata	SEGMENT
$unwind$?_Orphan_all@_Container_base12@std@@QEAAXXZ DD 020a01H
	DD	07006320aH
xdata	ENDS
;	COMDAT xdata
xdata	SEGMENT
$unwind$??0_Container_base12@std@@QEAA@XZ DD 010601H
	DD	07006H
xdata	ENDS
;	COMDAT xdata
xdata	SEGMENT
$unwind$??0_Container_proxy@std@@QEAA@PEAU_Container_base12@1@@Z DD 010b01H
	DD	0700bH
xdata	ENDS
;	COMDAT xdata
xdata	SEGMENT
$unwind$?_Adjust_manually_vector_aligned@std@@YAXAEAPEAXAEA_K@Z DD 020f01H
	DD	0700b920fH
xdata	ENDS
;	COMDAT xdata
xdata	SEGMENT
$unwind$?_Allocate@_Default_allocate_traits@std@@SAPEAX_K@Z DD 020a01H
	DD	07006320aH
xdata	ENDS
;	COMDAT xdata
xdata	SEGMENT
$unwind$?max@?$numeric_limits@_J@std@@SA_JXZ DD 010201H
	DD	07002H
xdata	ENDS
;	COMDAT xdata
xdata	SEGMENT
$unwind$?_Throw_bad_array_new_length@std@@YAXXZ DD 020601H
	DD	070027206H
xdata	ENDS
;	COMDAT xdata
xdata	SEGMENT
$unwind$??_Gbad_array_new_length@std@@UEAAPEAXI@Z DD 020e01H
	DD	0700a320eH
xdata	ENDS
;	COMDAT xdata
xdata	SEGMENT
$unwind$??0bad_array_new_length@std@@QEAA@AEBV01@@Z DD 020f01H
	DD	0700b320fH
xdata	ENDS
;	COMDAT xdata
xdata	SEGMENT
$unwind$??1bad_array_new_length@std@@UEAA@XZ DD 020a01H
	DD	07006320aH
xdata	ENDS
;	COMDAT xdata
xdata	SEGMENT
$unwind$??0bad_array_new_length@std@@QEAA@XZ DD 020a01H
	DD	07006320aH
xdata	ENDS
;	COMDAT xdata
xdata	SEGMENT
$unwind$??_Gbad_alloc@std@@UEAAPEAXI@Z DD 020e01H
	DD	0700a320eH
xdata	ENDS
;	COMDAT xdata
xdata	SEGMENT
$unwind$??0bad_alloc@std@@QEAA@AEBV01@@Z DD 020f01H
	DD	0700b320fH
xdata	ENDS
;	COMDAT xdata
xdata	SEGMENT
$unwind$??1bad_alloc@std@@UEAA@XZ DD 020a01H
	DD	07006320aH
xdata	ENDS
;	COMDAT xdata
xdata	SEGMENT
$unwind$??0bad_alloc@std@@AEAA@QEBD@Z DD 020f01H
	DD	0700b320fH
xdata	ENDS
;	COMDAT xdata
xdata	SEGMENT
$unwind$??_Gexception@std@@UEAAPEAXI@Z DD 020e01H
	DD	0700a320eH
xdata	ENDS
;	COMDAT xdata
xdata	SEGMENT
$unwind$?what@exception@std@@UEBAPEBDXZ DD 020a01H
	DD	07006120aH
xdata	ENDS
;	COMDAT xdata
xdata	SEGMENT
$unwind$??1exception@std@@UEAA@XZ DD 020a01H
	DD	07006320aH
xdata	ENDS
;	COMDAT xdata
xdata	SEGMENT
$unwind$??0exception@std@@QEAA@AEBV01@@Z DD 020f01H
	DD	0700b320fH
xdata	ENDS
;	COMDAT xdata
xdata	SEGMENT
$unwind$??0exception@std@@QEAA@QEBDH@Z DD 011001H
	DD	07010H
xdata	ENDS
;	COMDAT xdata
xdata	SEGMENT
$unwind$wmemcpy DD 021401H
	DD	070103214H
xdata	ENDS
;	COMDAT xdata
xdata	SEGMENT
$unwind$wmemcmp DD 021401H
	DD	070101214H
xdata	ENDS
;	COMDAT xdata
xdata	SEGMENT
$unwind$??2@YAPEAX_KPEAX@Z DD 010b01H
	DD	0700bH
xdata	ENDS
;	COMDAT xdata
xdata	SEGMENT
$unwind$?__empty_global_delete@@YAXPEAX_K@Z DD 010b01H
	DD	0700bH
xdata	ENDS
;	COMDAT xdata
xdata	SEGMENT
$unwind$?__empty_global_delete@@YAXPEAX@Z DD 010601H
	DD	07006H
xdata	ENDS
; Function compile flags: /Odtp /RTCsu
;	COMDAT ??$forward@AEAPEAV_Facet_base@std@@@std@@YAAEAPEAV_Facet_base@0@AEAPEAV10@@Z
_TEXT	SEGMENT
_Arg$ = 16
??$forward@AEAPEAV_Facet_base@std@@@std@@YAAEAPEAV_Facet_base@0@AEAPEAV10@@Z PROC ; std::forward<std::_Facet_base * &>, COMDAT
; File C:\Program Files (x86)\Microsoft Visual Studio\2019\Community\VC\Tools\MSVC\14.29.30133\include\type_traits
; Line 1385
$LN3:
	mov	QWORD PTR [rsp+8], rcx
	push	rdi
; Line 1386
	mov	rax, QWORD PTR _Arg$[rsp]
; Line 1387
	pop	rdi
	ret	0
??$forward@AEAPEAV_Facet_base@std@@@std@@YAAEAPEAV_Facet_base@0@AEAPEAV10@@Z ENDP ; std::forward<std::_Facet_base * &>
_TEXT	ENDS
; Function compile flags: /Odtp /RTCsu
;	COMDAT ?deallocate@?$_Default_allocator_traits@V?$allocator@U_Container_proxy@std@@@std@@@std@@SAXAEAV?$allocator@U_Container_proxy@std@@@2@QEAU_Container_proxy@2@_K@Z
_TEXT	SEGMENT
_Al$ = 48
_Ptr$ = 56
_Count$ = 64
?deallocate@?$_Default_allocator_traits@V?$allocator@U_Container_proxy@std@@@std@@@std@@SAXAEAV?$allocator@U_Container_proxy@std@@@2@QEAU_Container_proxy@2@_K@Z PROC ; std::_Default_allocator_traits<std::allocator<std::_Container_proxy> >::deallocate, COMDAT
; File C:\Program Files (x86)\Microsoft Visual Studio\2019\Community\VC\Tools\MSVC\14.29.30133\include\xmemory
; Line 660
$LN3:
	mov	QWORD PTR [rsp+24], r8
	mov	QWORD PTR [rsp+16], rdx
	mov	QWORD PTR [rsp+8], rcx
	push	rdi
	sub	rsp, 32					; 00000020H
; Line 669
	imul	rax, QWORD PTR _Count$[rsp], 16
	mov	rdx, rax
	mov	rcx, QWORD PTR _Ptr$[rsp]
	call	??$_Deallocate@$0BA@$0A@@std@@YAXPEAX_K@Z ; std::_Deallocate<16,0>
; Line 671
	add	rsp, 32					; 00000020H
	pop	rdi
	ret	0
?deallocate@?$_Default_allocator_traits@V?$allocator@U_Container_proxy@std@@@std@@@std@@SAXAEAV?$allocator@U_Container_proxy@std@@@2@QEAU_Container_proxy@2@_K@Z ENDP ; std::_Default_allocator_traits<std::allocator<std::_Container_proxy> >::deallocate
_TEXT	ENDS
; Function compile flags: /Odtp /RTCsu
;	COMDAT ??$?0AEAPEAV_Facet_base@std@@@?$_Compressed_pair@U?$default_delete@V_Facet_base@std@@@std@@PEAV_Facet_base@2@$00@std@@QEAA@U_Zero_then_variadic_args_t@1@AEAPEAV_Facet_base@1@@Z
_TEXT	SEGMENT
this$ = 48
__formal$ = 56
<_Val2_0>$ = 64
??$?0AEAPEAV_Facet_base@std@@@?$_Compressed_pair@U?$default_delete@V_Facet_base@std@@@std@@PEAV_Facet_base@2@$00@std@@QEAA@U_Zero_then_variadic_args_t@1@AEAPEAV_Facet_base@1@@Z PROC ; std::_Compressed_pair<std::default_delete<std::_Facet_base>,std::_Facet_base *,1>::_Compressed_pair<std::default_delete<std::_Facet_base>,std::_Facet_base *,1><std::_Facet_base * &>, COMDAT
; File C:\Program Files (x86)\Microsoft Visual Studio\2019\Community\VC\Tools\MSVC\14.29.30133\include\xmemory
; Line 1331
$LN3:
	mov	QWORD PTR [rsp+24], r8
	mov	BYTE PTR [rsp+16], dl
	mov	QWORD PTR [rsp+8], rcx
	push	rdi
	sub	rsp, 32					; 00000020H
	mov	rcx, QWORD PTR <_Val2_0>$[rsp]
	call	??$forward@AEAPEAV_Facet_base@std@@@std@@YAAEAPEAV_Facet_base@0@AEAPEAV10@@Z ; std::forward<std::_Facet_base * &>
	mov	rcx, QWORD PTR this$[rsp]
	mov	rax, QWORD PTR [rax]
	mov	QWORD PTR [rcx], rax
	mov	rax, QWORD PTR this$[rsp]
	add	rsp, 32					; 00000020H
	pop	rdi
	ret	0
??$?0AEAPEAV_Facet_base@std@@@?$_Compressed_pair@U?$default_delete@V_Facet_base@std@@@std@@PEAV_Facet_base@2@$00@std@@QEAA@U_Zero_then_variadic_args_t@1@AEAPEAV_Facet_base@1@@Z ENDP ; std::_Compressed_pair<std::default_delete<std::_Facet_base>,std::_Facet_base *,1>::_Compressed_pair<std::default_delete<std::_Facet_base>,std::_Facet_base *,1><std::_Facet_base * &>
_TEXT	ENDS
; Function compile flags: /Odtp /RTCsu
;	COMDAT ??$_Traits_equal@U?$char_traits@_W@std@@@std@@YA_NQEB_W_K01@Z
_TEXT	SEGMENT
tv70 = 32
_Left$ = 64
_Left_size$ = 72
_Right$ = 80
_Right_size$ = 88
??$_Traits_equal@U?$char_traits@_W@std@@@std@@YA_NQEB_W_K01@Z PROC ; std::_Traits_equal<std::char_traits<wchar_t> >, COMDAT
; File C:\Program Files (x86)\Microsoft Visual Studio\2019\Community\VC\Tools\MSVC\14.29.30133\include\xstring
; Line 569
$LN5:
	mov	QWORD PTR [rsp+32], r9
	mov	QWORD PTR [rsp+24], r8
	mov	QWORD PTR [rsp+16], rdx
	mov	QWORD PTR [rsp+8], rcx
	push	rdi
	sub	rsp, 48					; 00000030H
; Line 571
	mov	rax, QWORD PTR _Right_size$[rsp]
	cmp	QWORD PTR _Left_size$[rsp], rax
	jne	SHORT $LN3@Traits_equ
	mov	r8, QWORD PTR _Left_size$[rsp]
	mov	rdx, QWORD PTR _Right$[rsp]
	mov	rcx, QWORD PTR _Left$[rsp]
	call	?compare@?$_WChar_traits@_W@std@@SAHQEB_W0_K@Z ; std::_WChar_traits<wchar_t>::compare
	test	eax, eax
	jne	SHORT $LN3@Traits_equ
	mov	DWORD PTR tv70[rsp], 1
	jmp	SHORT $LN4@Traits_equ
$LN3@Traits_equ:
	mov	DWORD PTR tv70[rsp], 0
$LN4@Traits_equ:
	movzx	eax, BYTE PTR tv70[rsp]
; Line 572
	add	rsp, 48					; 00000030H
	pop	rdi
	ret	0
??$_Traits_equal@U?$char_traits@_W@std@@@std@@YA_NQEB_W_K01@Z ENDP ; std::_Traits_equal<std::char_traits<wchar_t> >
_TEXT	ENDS
; Function compile flags: /Odtp /RTCsu
;	COMDAT ??$exchange@PEAV_Facet_base@std@@$$T@std@@YAPEAV_Facet_base@0@AEAPEAV10@$$QEA$$T@Z
_TEXT	SEGMENT
_Old_val$ = 0
_Val$ = 32
_New_val$ = 40
??$exchange@PEAV_Facet_base@std@@$$T@std@@YAPEAV_Facet_base@0@AEAPEAV10@$$QEA$$T@Z PROC ; std::exchange<std::_Facet_base *,std::nullptr_t>, COMDAT
; File C:\Program Files (x86)\Microsoft Visual Studio\2019\Community\VC\Tools\MSVC\14.29.30133\include\utility
; Line 600
$LN3:
	mov	QWORD PTR [rsp+16], rdx
	mov	QWORD PTR [rsp+8], rcx
	push	rdi
	sub	rsp, 16
; Line 602
	mov	rax, QWORD PTR _Val$[rsp]
	mov	rax, QWORD PTR [rax]
	mov	QWORD PTR _Old_val$[rsp], rax
; Line 603
	mov	rax, QWORD PTR _Val$[rsp]
	mov	rcx, QWORD PTR _New_val$[rsp]
	mov	rcx, QWORD PTR [rcx]
	mov	QWORD PTR [rax], rcx
; Line 604
	mov	rax, QWORD PTR _Old_val$[rsp]
; Line 605
	add	rsp, 16
	pop	rdi
	ret	0
??$exchange@PEAV_Facet_base@std@@$$T@std@@YAPEAV_Facet_base@0@AEAPEAV10@$$QEA$$T@Z ENDP ; std::exchange<std::_Facet_base *,std::nullptr_t>
_TEXT	ENDS
; Function compile flags: /Odtp /RTCsu
;	COMDAT ??$forward@AEBQEA_W@std@@YAAEBQEA_WAEBQEA_W@Z
_TEXT	SEGMENT
_Arg$ = 16
??$forward@AEBQEA_W@std@@YAAEBQEA_WAEBQEA_W@Z PROC	; std::forward<wchar_t * const &>, COMDAT
; File C:\Program Files (x86)\Microsoft Visual Studio\2019\Community\VC\Tools\MSVC\14.29.30133\include\type_traits
; Line 1385
$LN3:
	mov	QWORD PTR [rsp+8], rcx
	push	rdi
; Line 1386
	mov	rax, QWORD PTR _Arg$[rsp]
; Line 1387
	pop	rdi
	ret	0
??$forward@AEBQEA_W@std@@YAAEBQEA_WAEBQEA_W@Z ENDP	; std::forward<wchar_t * const &>
_TEXT	ENDS
; Function compile flags: /Odtp /RTCsu
;	COMDAT ??$_Allocate_manually_vector_aligned@U_Default_allocate_traits@std@@@std@@YAPEAX_K@Z
_TEXT	SEGMENT
_Block_size$ = 48
_Ptr_container$ = 56
_Ptr$ = 64
_Bytes$ = 96
??$_Allocate_manually_vector_aligned@U_Default_allocate_traits@std@@@std@@YAPEAX_K@Z PROC ; std::_Allocate_manually_vector_aligned<std::_Default_allocate_traits>, COMDAT
; File C:\Program Files (x86)\Microsoft Visual Studio\2019\Community\VC\Tools\MSVC\14.29.30133\include\xmemory
; Line 127
$LN13:
	mov	QWORD PTR [rsp+8], rcx
	push	rdi
	sub	rsp, 80					; 00000050H
; Line 129
	mov	rax, QWORD PTR _Bytes$[rsp]
	add	rax, 47					; 0000002fH
	mov	QWORD PTR _Block_size$[rsp], rax
; Line 130
	mov	rax, QWORD PTR _Bytes$[rsp]
	cmp	QWORD PTR _Block_size$[rsp], rax
	ja	SHORT $LN8@Allocate_m
; Line 131
	call	?_Throw_bad_array_new_length@std@@YAXXZ	; std::_Throw_bad_array_new_length
$LN8@Allocate_m:
; Line 134
	mov	rcx, QWORD PTR _Block_size$[rsp]
	call	?_Allocate@_Default_allocate_traits@std@@SAPEAX_K@Z ; std::_Default_allocate_traits::_Allocate
	mov	QWORD PTR _Ptr_container$[rsp], rax
$LN4@Allocate_m:
; Line 135
	cmp	QWORD PTR _Ptr_container$[rsp], 0
	je	SHORT $LN9@Allocate_m
	jmp	SHORT $LN10@Allocate_m
$LN9@Allocate_m:
$LN7@Allocate_m:
	lea	rax, OFFSET FLAT:$SG56599
	mov	QWORD PTR [rsp+40], rax
	lea	rax, OFFSET FLAT:$SG56600
	mov	QWORD PTR [rsp+32], rax
	xor	r9d, r9d
	mov	r8d, 135				; 00000087H
	lea	rdx, OFFSET FLAT:$SG56601
	mov	ecx, 2
	call	QWORD PTR __imp__CrtDbgReport
	cmp	eax, 1
	jne	SHORT $LN12@Allocate_m
	int	3
	xor	eax, eax
$LN12@Allocate_m:
	mov	QWORD PTR [rsp+32], 0
	mov	r9d, 135				; 00000087H
	lea	r8, OFFSET FLAT:$SG56602
	lea	rdx, OFFSET FLAT:$SG56603
	lea	rcx, OFFSET FLAT:$SG56604
	call	QWORD PTR __imp__invalid_parameter
	xor	eax, eax
	test	eax, eax
	jne	SHORT $LN7@Allocate_m
$LN10@Allocate_m:
	xor	eax, eax
	test	eax, eax
	jne	SHORT $LN4@Allocate_m
; Line 136
	mov	rax, QWORD PTR _Ptr_container$[rsp]
	add	rax, 47					; 0000002fH
	and	rax, -32				; ffffffffffffffe0H
	mov	QWORD PTR _Ptr$[rsp], rax
; Line 137
	mov	eax, 8
	imul	rax, rax, -1
	mov	rcx, QWORD PTR _Ptr$[rsp]
	mov	rdx, QWORD PTR _Ptr_container$[rsp]
	mov	QWORD PTR [rcx+rax], rdx
; Line 140
	mov	eax, 8
	imul	rax, rax, -2
	mov	rcx, QWORD PTR _Ptr$[rsp]
	mov	rdx, -361700864190383366		; fafafafafafafafaH
	mov	QWORD PTR [rcx+rax], rdx
; Line 142
	mov	rax, QWORD PTR _Ptr$[rsp]
$LN11@Allocate_m:
; Line 143
	add	rsp, 80					; 00000050H
	pop	rdi
	ret	0
??$_Allocate_manually_vector_aligned@U_Default_allocate_traits@std@@@std@@YAPEAX_K@Z ENDP ; std::_Allocate_manually_vector_aligned<std::_Default_allocate_traits>
_TEXT	ENDS
; Function compile flags: /Odtp /RTCsu
;	COMDAT ??$_Voidify_iter@PEAPEA_W@std@@YAPEAXPEAPEA_W@Z
_TEXT	SEGMENT
_It$ = 16
??$_Voidify_iter@PEAPEA_W@std@@YAPEAXPEAPEA_W@Z PROC	; std::_Voidify_iter<wchar_t * *>, COMDAT
; File C:\Program Files (x86)\Microsoft Visual Studio\2019\Community\VC\Tools\MSVC\14.29.30133\include\xutility
; Line 123
$LN3:
	mov	QWORD PTR [rsp+8], rcx
	push	rdi
; Line 125
	mov	rax, QWORD PTR _It$[rsp]
; Line 129
	pop	rdi
	ret	0
??$_Voidify_iter@PEAPEA_W@std@@YAPEAXPEAPEA_W@Z ENDP	; std::_Voidify_iter<wchar_t * *>
_TEXT	ENDS
; Function compile flags: /Odtp /RTCsu
;	COMDAT ??$addressof@PEA_W@std@@YAPEAPEA_WAEAPEA_W@Z
_TEXT	SEGMENT
_Val$ = 16
??$addressof@PEA_W@std@@YAPEAPEA_WAEAPEA_W@Z PROC	; std::addressof<wchar_t *>, COMDAT
; File C:\Program Files (x86)\Microsoft Visual Studio\2019\Community\VC\Tools\MSVC\14.29.30133\include\xstddef
; Line 252
$LN3:
	mov	QWORD PTR [rsp+8], rcx
	push	rdi
; Line 253
	mov	rax, QWORD PTR _Val$[rsp]
; Line 254
	pop	rdi
	ret	0
??$addressof@PEA_W@std@@YAPEAPEA_WAEAPEA_W@Z ENDP	; std::addressof<wchar_t *>
_TEXT	ENDS
; Function compile flags: /Odtp /RTCsu
;	COMDAT ??$_Deallocate_plain@V?$allocator@U_Container_proxy@std@@@std@@@std@@YAXAEAV?$allocator@U_Container_proxy@std@@@0@QEAU_Container_proxy@0@@Z
_TEXT	SEGMENT
_Al$ = 48
_Ptr$ = 56
??$_Deallocate_plain@V?$allocator@U_Container_proxy@std@@@std@@@std@@YAXAEAV?$allocator@U_Container_proxy@std@@@0@QEAU_Container_proxy@0@@Z PROC ; std::_Deallocate_plain<std::allocator<std::_Container_proxy> >, COMDAT
; File C:\Program Files (x86)\Microsoft Visual Studio\2019\Community\VC\Tools\MSVC\14.29.30133\include\xmemory
; Line 933
$LN3:
	mov	QWORD PTR [rsp+16], rdx
	mov	QWORD PTR [rsp+8], rcx
	push	rdi
	sub	rsp, 32					; 00000020H
; Line 937
	mov	r8d, 1
	mov	rdx, QWORD PTR _Ptr$[rsp]
	mov	rcx, QWORD PTR _Al$[rsp]
	call	?deallocate@?$_Default_allocator_traits@V?$allocator@U_Container_proxy@std@@@std@@@std@@SAXAEAV?$allocator@U_Container_proxy@std@@@2@QEAU_Container_proxy@2@_K@Z ; std::_Default_allocator_traits<std::allocator<std::_Container_proxy> >::deallocate
	npad	1
; Line 942
	add	rsp, 32					; 00000020H
	pop	rdi
	ret	0
??$_Deallocate_plain@V?$allocator@U_Container_proxy@std@@@std@@@std@@YAXAEAV?$allocator@U_Container_proxy@std@@@0@QEAU_Container_proxy@0@@Z ENDP ; std::_Deallocate_plain<std::allocator<std::_Container_proxy> >
_TEXT	ENDS
; Function compile flags: /Odtp /RTCsu
;	COMDAT ??1sentry@?$basic_istream@_WU?$char_traits@_W@std@@@std@@QEAA@XZ
_TEXT	SEGMENT
this$ = 48
??1sentry@?$basic_istream@_WU?$char_traits@_W@std@@@std@@QEAA@XZ PROC ; std::basic_istream<wchar_t,std::char_traits<wchar_t> >::sentry::~sentry, COMDAT
$LN3:
	mov	QWORD PTR [rsp+8], rcx
	push	rdi
	sub	rsp, 32					; 00000020H
	mov	rcx, QWORD PTR this$[rsp]
	call	??1_Sentry_base@?$basic_istream@_WU?$char_traits@_W@std@@@std@@QEAA@XZ ; std::basic_istream<wchar_t,std::char_traits<wchar_t> >::_Sentry_base::~_Sentry_base
	add	rsp, 32					; 00000020H
	pop	rdi
	ret	0
??1sentry@?$basic_istream@_WU?$char_traits@_W@std@@@std@@QEAA@XZ ENDP ; std::basic_istream<wchar_t,std::char_traits<wchar_t> >::sentry::~sentry
_TEXT	ENDS
; Function compile flags: /Odtp /RTCsu
;	COMDAT ??Bsentry@?$basic_istream@_WU?$char_traits@_W@std@@@std@@QEBA_NXZ
_TEXT	SEGMENT
this$ = 16
??Bsentry@?$basic_istream@_WU?$char_traits@_W@std@@@std@@QEBA_NXZ PROC ; std::basic_istream<wchar_t,std::char_traits<wchar_t> >::sentry::operator bool, COMDAT
; File C:\Program Files (x86)\Microsoft Visual Studio\2019\Community\VC\Tools\MSVC\14.29.30133\include\istream
; Line 103
$LN3:
	mov	QWORD PTR [rsp+8], rcx
	push	rdi
; Line 104
	mov	rax, QWORD PTR this$[rsp]
	movzx	eax, BYTE PTR [rax+8]
; Line 105
	pop	rdi
	ret	0
??Bsentry@?$basic_istream@_WU?$char_traits@_W@std@@@std@@QEBA_NXZ ENDP ; std::basic_istream<wchar_t,std::char_traits<wchar_t> >::sentry::operator bool
_TEXT	ENDS
; Function compile flags: /Odtp /RTCsu
;	COMDAT ??0sentry@?$basic_istream@_WU?$char_traits@_W@std@@@std@@QEAA@AEAV12@_N@Z
_TEXT	SEGMENT
this$ = 48
_Istr$ = 56
_Noskip$ = 64
??0sentry@?$basic_istream@_WU?$char_traits@_W@std@@@std@@QEAA@AEAV12@_N@Z PROC ; std::basic_istream<wchar_t,std::char_traits<wchar_t> >::sentry::sentry, COMDAT
; File C:\Program Files (x86)\Microsoft Visual Studio\2019\Community\VC\Tools\MSVC\14.29.30133\include\istream
; Line 101
$LN4:
	mov	BYTE PTR [rsp+24], r8b
	mov	QWORD PTR [rsp+16], rdx
	mov	QWORD PTR [rsp+8], rcx
	push	rdi
	sub	rsp, 32					; 00000020H
	mov	rdx, QWORD PTR _Istr$[rsp]
	mov	rcx, QWORD PTR this$[rsp]
	call	??0_Sentry_base@?$basic_istream@_WU?$char_traits@_W@std@@@std@@QEAA@AEAV12@@Z ; std::basic_istream<wchar_t,std::char_traits<wchar_t> >::_Sentry_base::_Sentry_base
	npad	1
	movzx	edx, BYTE PTR _Noskip$[rsp]
	mov	rax, QWORD PTR this$[rsp]
	mov	rcx, QWORD PTR [rax]
	call	QWORD PTR __imp_?_Ipfx@?$basic_istream@_WU?$char_traits@_W@std@@@std@@QEAA_N_N@Z
	mov	rcx, QWORD PTR this$[rsp]
	mov	BYTE PTR [rcx+8], al
	mov	rax, QWORD PTR this$[rsp]
	add	rsp, 32					; 00000020H
	pop	rdi
	ret	0
??0sentry@?$basic_istream@_WU?$char_traits@_W@std@@@std@@QEAA@AEAV12@_N@Z ENDP ; std::basic_istream<wchar_t,std::char_traits<wchar_t> >::sentry::sentry
_TEXT	ENDS
;	COMDAT text$x
text$x	SEGMENT
this$ = 48
_Istr$ = 56
_Noskip$ = 64
?dtor$0@?0???0sentry@?$basic_istream@_WU?$char_traits@_W@std@@@std@@QEAA@AEAV12@_N@Z@4HA PROC ; `std::basic_istream<wchar_t,std::char_traits<wchar_t> >::sentry::sentry'::`1'::dtor$0
	mov	QWORD PTR [rsp+8], rcx
	mov	QWORD PTR [rsp+16], rdx
	push	rbp
	push	rdi
	sub	rsp, 40					; 00000028H
	mov	rbp, rdx
	mov	rcx, QWORD PTR this$[rbp]
	call	??1_Sentry_base@?$basic_istream@_WU?$char_traits@_W@std@@@std@@QEAA@XZ ; std::basic_istream<wchar_t,std::char_traits<wchar_t> >::_Sentry_base::~_Sentry_base
	add	rsp, 40					; 00000028H
	pop	rdi
	pop	rbp
	ret	0
?dtor$0@?0???0sentry@?$basic_istream@_WU?$char_traits@_W@std@@@std@@QEAA@AEAV12@_N@Z@4HA ENDP ; `std::basic_istream<wchar_t,std::char_traits<wchar_t> >::sentry::sentry'::`1'::dtor$0
text$x	ENDS
; Function compile flags: /Odtp /RTCsu
;	COMDAT text$x
text$x	SEGMENT
this$ = 48
_Istr$ = 56
_Noskip$ = 64
?dtor$0@?0???0sentry@?$basic_istream@_WU?$char_traits@_W@std@@@std@@QEAA@AEAV12@_N@Z@4HA PROC ; `std::basic_istream<wchar_t,std::char_traits<wchar_t> >::sentry::sentry'::`1'::dtor$0
	mov	QWORD PTR [rsp+8], rcx
	mov	QWORD PTR [rsp+16], rdx
	push	rbp
	push	rdi
	sub	rsp, 40					; 00000028H
	mov	rbp, rdx
	mov	rcx, QWORD PTR this$[rbp]
	call	??1_Sentry_base@?$basic_istream@_WU?$char_traits@_W@std@@@std@@QEAA@XZ ; std::basic_istream<wchar_t,std::char_traits<wchar_t> >::_Sentry_base::~_Sentry_base
	add	rsp, 40					; 00000028H
	pop	rdi
	pop	rbp
	ret	0
?dtor$0@?0???0sentry@?$basic_istream@_WU?$char_traits@_W@std@@@std@@QEAA@AEAV12@_N@Z@4HA ENDP ; `std::basic_istream<wchar_t,std::char_traits<wchar_t> >::sentry::sentry'::`1'::dtor$0
text$x	ENDS
; Function compile flags: /Odtp /RTCsu
;	COMDAT ??1_Sentry_base@?$basic_istream@_WU?$char_traits@_W@std@@@std@@QEAA@XZ
_TEXT	SEGMENT
_Rdbuf$ = 32
tv72 = 40
this$ = 64
??1_Sentry_base@?$basic_istream@_WU?$char_traits@_W@std@@@std@@QEAA@XZ PROC ; std::basic_istream<wchar_t,std::char_traits<wchar_t> >::_Sentry_base::~_Sentry_base, COMDAT
; File C:\Program Files (x86)\Microsoft Visual Studio\2019\Community\VC\Tools\MSVC\14.29.30133\include\istream
; Line 86
$LN4:
	mov	QWORD PTR [rsp+8], rcx
	push	rdi
	sub	rsp, 48					; 00000030H
; Line 87
	mov	rax, QWORD PTR this$[rsp]
	mov	rax, QWORD PTR [rax]
	mov	QWORD PTR tv72[rsp], rax
	mov	rax, QWORD PTR tv72[rsp]
	mov	rax, QWORD PTR [rax]
	movsxd	rax, DWORD PTR [rax+4]
	mov	rcx, QWORD PTR tv72[rsp]
	add	rcx, rax
	mov	rax, rcx
	mov	rcx, rax
	call	QWORD PTR __imp_?rdbuf@?$basic_ios@_WU?$char_traits@_W@std@@@std@@QEBAPEAV?$basic_streambuf@_WU?$char_traits@_W@std@@@2@XZ
	mov	QWORD PTR _Rdbuf$[rsp], rax
; Line 88
	cmp	QWORD PTR _Rdbuf$[rsp], 0
	je	SHORT $LN2@Sentry_bas
; Line 89
	mov	rax, QWORD PTR _Rdbuf$[rsp]
	mov	rax, QWORD PTR [rax]
	mov	rcx, QWORD PTR _Rdbuf$[rsp]
	call	QWORD PTR [rax+16]
	npad	1
$LN2@Sentry_bas:
; Line 91
	add	rsp, 48					; 00000030H
	pop	rdi
	ret	0
??1_Sentry_base@?$basic_istream@_WU?$char_traits@_W@std@@@std@@QEAA@XZ ENDP ; std::basic_istream<wchar_t,std::char_traits<wchar_t> >::_Sentry_base::~_Sentry_base
_TEXT	ENDS
; Function compile flags: /Odtp /RTCsu
;	COMDAT ??0_Sentry_base@?$basic_istream@_WU?$char_traits@_W@std@@@std@@QEAA@AEAV12@@Z
_TEXT	SEGMENT
_Rdbuf$ = 32
tv73 = 40
this$ = 64
_Istr$ = 72
??0_Sentry_base@?$basic_istream@_WU?$char_traits@_W@std@@@std@@QEAA@AEAV12@@Z PROC ; std::basic_istream<wchar_t,std::char_traits<wchar_t> >::_Sentry_base::_Sentry_base, COMDAT
; File C:\Program Files (x86)\Microsoft Visual Studio\2019\Community\VC\Tools\MSVC\14.29.30133\include\istream
; Line 79
$LN4:
	mov	QWORD PTR [rsp+16], rdx
	mov	QWORD PTR [rsp+8], rcx
	push	rdi
	sub	rsp, 48					; 00000030H
	mov	rax, QWORD PTR this$[rsp]
	mov	rcx, QWORD PTR _Istr$[rsp]
	mov	QWORD PTR [rax], rcx
; Line 80
	mov	rax, QWORD PTR this$[rsp]
	mov	rax, QWORD PTR [rax]
	mov	QWORD PTR tv73[rsp], rax
	mov	rax, QWORD PTR tv73[rsp]
	mov	rax, QWORD PTR [rax]
	movsxd	rax, DWORD PTR [rax+4]
	mov	rcx, QWORD PTR tv73[rsp]
	add	rcx, rax
	mov	rax, rcx
	mov	rcx, rax
	call	QWORD PTR __imp_?rdbuf@?$basic_ios@_WU?$char_traits@_W@std@@@std@@QEBAPEAV?$basic_streambuf@_WU?$char_traits@_W@std@@@2@XZ
	mov	QWORD PTR _Rdbuf$[rsp], rax
; Line 81
	cmp	QWORD PTR _Rdbuf$[rsp], 0
	je	SHORT $LN2@Sentry_bas
; Line 82
	mov	rax, QWORD PTR _Rdbuf$[rsp]
	mov	rax, QWORD PTR [rax]
	mov	rcx, QWORD PTR _Rdbuf$[rsp]
	call	QWORD PTR [rax+8]
$LN2@Sentry_bas:
; Line 84
	mov	rax, QWORD PTR this$[rsp]
	add	rsp, 48					; 00000030H
	pop	rdi
	ret	0
??0_Sentry_base@?$basic_istream@_WU?$char_traits@_W@std@@@std@@QEAA@AEAV12@@Z ENDP ; std::basic_istream<wchar_t,std::char_traits<wchar_t> >::_Sentry_base::_Sentry_base
_TEXT	ENDS
; Function compile flags: /Odtp /RTCsu
;	COMDAT ??$move@AEAV?$basic_istream@_WU?$char_traits@_W@std@@@std@@@std@@YA$$QEAV?$basic_istream@_WU?$char_traits@_W@std@@@0@AEAV10@@Z
_TEXT	SEGMENT
_Arg$ = 16
??$move@AEAV?$basic_istream@_WU?$char_traits@_W@std@@@std@@@std@@YA$$QEAV?$basic_istream@_WU?$char_traits@_W@std@@@0@AEAV10@@Z PROC ; std::move<std::basic_istream<wchar_t,std::char_traits<wchar_t> > &>, COMDAT
; File C:\Program Files (x86)\Microsoft Visual Studio\2019\Community\VC\Tools\MSVC\14.29.30133\include\type_traits
; Line 1396
$LN3:
	mov	QWORD PTR [rsp+8], rcx
	push	rdi
; Line 1397
	mov	rax, QWORD PTR _Arg$[rsp]
; Line 1398
	pop	rdi
	ret	0
??$move@AEAV?$basic_istream@_WU?$char_traits@_W@std@@@std@@@std@@YA$$QEAV?$basic_istream@_WU?$char_traits@_W@std@@@0@AEAV10@@Z ENDP ; std::move<std::basic_istream<wchar_t,std::char_traits<wchar_t> > &>
_TEXT	ENDS
; Function compile flags: /Odtp /RTCsu
;	COMDAT ??$?0U?$default_delete@V_Facet_base@std@@@std@@$0A@@?$unique_ptr@V_Facet_base@std@@U?$default_delete@V_Facet_base@std@@@2@@std@@QEAA@PEAV_Facet_base@1@@Z
_TEXT	SEGMENT
$T1 = 32
this$ = 64
_Ptr$ = 72
??$?0U?$default_delete@V_Facet_base@std@@@std@@$0A@@?$unique_ptr@V_Facet_base@std@@U?$default_delete@V_Facet_base@std@@@2@@std@@QEAA@PEAV_Facet_base@1@@Z PROC ; std::unique_ptr<std::_Facet_base,std::default_delete<std::_Facet_base> >::unique_ptr<std::_Facet_base,std::default_delete<std::_Facet_base> ><std::default_delete<std::_Facet_base>,0>, COMDAT
; File C:\Program Files (x86)\Microsoft Visual Studio\2019\Community\VC\Tools\MSVC\14.29.30133\include\memory
; Line 3141
$LN3:
	mov	QWORD PTR [rsp+16], rdx
	mov	QWORD PTR [rsp+8], rcx
	push	rdi
	sub	rsp, 48					; 00000030H
	mov	rax, QWORD PTR this$[rsp]
	lea	r8, QWORD PTR _Ptr$[rsp]
	movzx	edx, BYTE PTR $T1[rsp]
	mov	rcx, rax
	call	??$?0AEAPEAV_Facet_base@std@@@?$_Compressed_pair@U?$default_delete@V_Facet_base@std@@@std@@PEAV_Facet_base@2@$00@std@@QEAA@U_Zero_then_variadic_args_t@1@AEAPEAV_Facet_base@1@@Z ; std::_Compressed_pair<std::default_delete<std::_Facet_base>,std::_Facet_base *,1>::_Compressed_pair<std::default_delete<std::_Facet_base>,std::_Facet_base *,1><std::_Facet_base * &>
	mov	rax, QWORD PTR this$[rsp]
	add	rsp, 48					; 00000030H
	pop	rdi
	ret	0
??$?0U?$default_delete@V_Facet_base@std@@@std@@$0A@@?$unique_ptr@V_Facet_base@std@@U?$default_delete@V_Facet_base@std@@@2@@std@@QEAA@PEAV_Facet_base@1@@Z ENDP ; std::unique_ptr<std::_Facet_base,std::default_delete<std::_Facet_base> >::unique_ptr<std::_Facet_base,std::default_delete<std::_Facet_base> ><std::default_delete<std::_Facet_base>,0>
_TEXT	ENDS
; Function compile flags: /Odtp /RTCsu
;	COMDAT ?__autoclassinit2@?$unique_ptr@V_Facet_base@std@@U?$default_delete@V_Facet_base@std@@@2@@std@@QEAAX_K@Z
_TEXT	SEGMENT
this$ = 16
classSize$ = 24
?__autoclassinit2@?$unique_ptr@V_Facet_base@std@@U?$default_delete@V_Facet_base@std@@@2@@std@@QEAAX_K@Z PROC ; std::unique_ptr<std::_Facet_base,std::default_delete<std::_Facet_base> >::__autoclassinit2, COMDAT
$LN3:
	mov	QWORD PTR [rsp+16], rdx
	mov	QWORD PTR [rsp+8], rcx
	push	rdi
	mov	rdi, QWORD PTR this$[rsp]
	xor	eax, eax
	mov	rcx, QWORD PTR classSize$[rsp]
	rep stosb
	pop	rdi
	ret	0
?__autoclassinit2@?$unique_ptr@V_Facet_base@std@@U?$default_delete@V_Facet_base@std@@@2@@std@@QEAAX_K@Z ENDP ; std::unique_ptr<std::_Facet_base,std::default_delete<std::_Facet_base> >::__autoclassinit2
_TEXT	ENDS
; Function compile flags: /Odtp /RTCsu
;	COMDAT ?_Get_first@?$_Compressed_pair@U?$default_delete@V_Facet_base@std@@@std@@PEAV_Facet_base@2@$00@std@@QEAAAEAU?$default_delete@V_Facet_base@std@@@2@XZ
_TEXT	SEGMENT
this$ = 16
?_Get_first@?$_Compressed_pair@U?$default_delete@V_Facet_base@std@@@std@@PEAV_Facet_base@2@$00@std@@QEAAAEAU?$default_delete@V_Facet_base@std@@@2@XZ PROC ; std::_Compressed_pair<std::default_delete<std::_Facet_base>,std::_Facet_base *,1>::_Get_first, COMDAT
; File C:\Program Files (x86)\Microsoft Visual Studio\2019\Community\VC\Tools\MSVC\14.29.30133\include\xmemory
; Line 1338
$LN3:
	mov	QWORD PTR [rsp+8], rcx
	push	rdi
; Line 1339
	mov	rax, QWORD PTR this$[rsp]
; Line 1340
	pop	rdi
	ret	0
?_Get_first@?$_Compressed_pair@U?$default_delete@V_Facet_base@std@@@std@@PEAV_Facet_base@2@$00@std@@QEAAAEAU?$default_delete@V_Facet_base@std@@@2@XZ ENDP ; std::_Compressed_pair<std::default_delete<std::_Facet_base>,std::_Facet_base *,1>::_Get_first
_TEXT	ENDS
; Function compile flags: /Odtp /RTCsu
;	COMDAT ?release@?$unique_ptr@V_Facet_base@std@@U?$default_delete@V_Facet_base@std@@@2@@std@@QEAAPEAV_Facet_base@2@XZ
_TEXT	SEGMENT
$T1 = 32
this$ = 64
?release@?$unique_ptr@V_Facet_base@std@@U?$default_delete@V_Facet_base@std@@@2@@std@@QEAAPEAV_Facet_base@2@XZ PROC ; std::unique_ptr<std::_Facet_base,std::default_delete<std::_Facet_base> >::release, COMDAT
; File C:\Program Files (x86)\Microsoft Visual Studio\2019\Community\VC\Tools\MSVC\14.29.30133\include\memory
; Line 3226
$LN3:
	mov	QWORD PTR [rsp+8], rcx
	push	rdi
	sub	rsp, 48					; 00000030H
; Line 3227
	mov	QWORD PTR $T1[rsp], 0
	mov	rax, QWORD PTR this$[rsp]
	lea	rdx, QWORD PTR $T1[rsp]
	mov	rcx, rax
	call	??$exchange@PEAV_Facet_base@std@@$$T@std@@YAPEAV_Facet_base@0@AEAPEAV10@$$QEA$$T@Z ; std::exchange<std::_Facet_base *,std::nullptr_t>
; Line 3228
	add	rsp, 48					; 00000030H
	pop	rdi
	ret	0
?release@?$unique_ptr@V_Facet_base@std@@U?$default_delete@V_Facet_base@std@@@2@@std@@QEAAPEAV_Facet_base@2@XZ ENDP ; std::unique_ptr<std::_Facet_base,std::default_delete<std::_Facet_base> >::release
_TEXT	ENDS
; Function compile flags: /Odtp /RTCsu
;	COMDAT ??1?$unique_ptr@V_Facet_base@std@@U?$default_delete@V_Facet_base@std@@@2@@std@@QEAA@XZ
_TEXT	SEGMENT
this$ = 48
??1?$unique_ptr@V_Facet_base@std@@U?$default_delete@V_Facet_base@std@@@2@@std@@QEAA@XZ PROC ; std::unique_ptr<std::_Facet_base,std::default_delete<std::_Facet_base> >::~unique_ptr<std::_Facet_base,std::default_delete<std::_Facet_base> >, COMDAT
; File C:\Program Files (x86)\Microsoft Visual Studio\2019\Community\VC\Tools\MSVC\14.29.30133\include\memory
; Line 3196
$LN4:
	mov	QWORD PTR [rsp+8], rcx
	push	rdi
	sub	rsp, 32					; 00000020H
; Line 3197
	mov	rax, QWORD PTR this$[rsp]
	cmp	QWORD PTR [rax], 0
	je	SHORT $LN2@unique_ptr
; Line 3198
	mov	rax, QWORD PTR this$[rsp]
	mov	rcx, rax
	call	?_Get_first@?$_Compressed_pair@U?$default_delete@V_Facet_base@std@@@std@@PEAV_Facet_base@2@$00@std@@QEAAAEAU?$default_delete@V_Facet_base@std@@@2@XZ ; std::_Compressed_pair<std::default_delete<std::_Facet_base>,std::_Facet_base *,1>::_Get_first
	mov	rcx, QWORD PTR this$[rsp]
	mov	rdx, QWORD PTR [rcx]
	mov	rcx, rax
	call	??R?$default_delete@V_Facet_base@std@@@std@@QEBAXPEAV_Facet_base@1@@Z ; std::default_delete<std::_Facet_base>::operator()
$LN2@unique_ptr:
; Line 3200
	add	rsp, 32					; 00000020H
	pop	rdi
	ret	0
??1?$unique_ptr@V_Facet_base@std@@U?$default_delete@V_Facet_base@std@@@2@@std@@QEAA@XZ ENDP ; std::unique_ptr<std::_Facet_base,std::default_delete<std::_Facet_base> >::~unique_ptr<std::_Facet_base,std::default_delete<std::_Facet_base> >
_TEXT	ENDS
; Function compile flags: /Odtp /RTCsu
;	COMDAT ??R?$default_delete@V_Facet_base@std@@@std@@QEBAXPEAV_Facet_base@1@@Z
_TEXT	SEGMENT
$T1 = 32
tv70 = 40
this$ = 64
_Ptr$ = 72
??R?$default_delete@V_Facet_base@std@@@std@@QEBAXPEAV_Facet_base@1@@Z PROC ; std::default_delete<std::_Facet_base>::operator(), COMDAT
; File C:\Program Files (x86)\Microsoft Visual Studio\2019\Community\VC\Tools\MSVC\14.29.30133\include\memory
; Line 3088
$LN5:
	mov	QWORD PTR [rsp+16], rdx
	mov	QWORD PTR [rsp+8], rcx
	push	rdi
	sub	rsp, 48					; 00000030H
; Line 3090
	mov	rax, QWORD PTR _Ptr$[rsp]
	mov	QWORD PTR $T1[rsp], rax
	cmp	QWORD PTR $T1[rsp], 0
	je	SHORT $LN3@operator
	mov	rax, QWORD PTR $T1[rsp]
	mov	rax, QWORD PTR [rax]
	mov	edx, 1
	mov	rcx, QWORD PTR $T1[rsp]
	call	QWORD PTR [rax]
	mov	QWORD PTR tv70[rsp], rax
	jmp	SHORT $LN4@operator
$LN3@operator:
	mov	QWORD PTR tv70[rsp], 0
$LN4@operator:
; Line 3091
	add	rsp, 48					; 00000030H
	pop	rdi
	ret	0
??R?$default_delete@V_Facet_base@std@@@std@@QEBAXPEAV_Facet_base@1@@Z ENDP ; std::default_delete<std::_Facet_base>::operator()
_TEXT	ENDS
; Function compile flags: /Odtp /RTCsu
;	COMDAT ??$forward@PEAU_Container_base12@std@@@std@@YA$$QEAPEAU_Container_base12@0@AEAPEAU10@@Z
_TEXT	SEGMENT
_Arg$ = 16
??$forward@PEAU_Container_base12@std@@@std@@YA$$QEAPEAU_Container_base12@0@AEAPEAU10@@Z PROC ; std::forward<std::_Container_base12 *>, COMDAT
; File C:\Program Files (x86)\Microsoft Visual Studio\2019\Community\VC\Tools\MSVC\14.29.30133\include\type_traits
; Line 1385
$LN3:
	mov	QWORD PTR [rsp+8], rcx
	push	rdi
; Line 1386
	mov	rax, QWORD PTR _Arg$[rsp]
; Line 1387
	pop	rdi
	ret	0
??$forward@PEAU_Container_base12@std@@@std@@YA$$QEAPEAU_Container_base12@0@AEAPEAU10@@Z ENDP ; std::forward<std::_Container_base12 *>
_TEXT	ENDS
; Function compile flags: /Odtp /RTCsu
;	COMDAT ??$_Voidify_iter@PEAU_Container_proxy@std@@@std@@YAPEAXPEAU_Container_proxy@0@@Z
_TEXT	SEGMENT
_It$ = 16
??$_Voidify_iter@PEAU_Container_proxy@std@@@std@@YAPEAXPEAU_Container_proxy@0@@Z PROC ; std::_Voidify_iter<std::_Container_proxy *>, COMDAT
; File C:\Program Files (x86)\Microsoft Visual Studio\2019\Community\VC\Tools\MSVC\14.29.30133\include\xutility
; Line 123
$LN3:
	mov	QWORD PTR [rsp+8], rcx
	push	rdi
; Line 125
	mov	rax, QWORD PTR _It$[rsp]
; Line 129
	pop	rdi
	ret	0
??$_Voidify_iter@PEAU_Container_proxy@std@@@std@@YAPEAXPEAU_Container_proxy@0@@Z ENDP ; std::_Voidify_iter<std::_Container_proxy *>
_TEXT	ENDS
; Function compile flags: /Odtp /RTCsu
;	COMDAT ??$addressof@U_Container_proxy@std@@@std@@YAPEAU_Container_proxy@0@AEAU10@@Z
_TEXT	SEGMENT
_Val$ = 16
??$addressof@U_Container_proxy@std@@@std@@YAPEAU_Container_proxy@0@AEAU10@@Z PROC ; std::addressof<std::_Container_proxy>, COMDAT
; File C:\Program Files (x86)\Microsoft Visual Studio\2019\Community\VC\Tools\MSVC\14.29.30133\include\xstddef
; Line 252
$LN3:
	mov	QWORD PTR [rsp+8], rcx
	push	rdi
; Line 253
	mov	rax, QWORD PTR _Val$[rsp]
; Line 254
	pop	rdi
	ret	0
??$addressof@U_Container_proxy@std@@@std@@YAPEAU_Container_proxy@0@AEAU10@@Z ENDP ; std::addressof<std::_Container_proxy>
_TEXT	ENDS
; Function compile flags: /Odtp /RTCsu
;	COMDAT ??$_Get_size_of_n@$01@std@@YA_K_K@Z
_TEXT	SEGMENT
_Overflow_is_possible$ = 32
_Max_possible$1 = 40
_Count$ = 64
??$_Get_size_of_n@$01@std@@YA_K_K@Z PROC		; std::_Get_size_of_n<2>, COMDAT
; File C:\Program Files (x86)\Microsoft Visual Studio\2019\Community\VC\Tools\MSVC\14.29.30133\include\xmemory
; Line 55
$LN4:
	mov	QWORD PTR [rsp+8], rcx
	push	rdi
	sub	rsp, 48					; 00000030H
; Line 56
	mov	BYTE PTR _Overflow_is_possible$[rsp], 1
; Line 59
	mov	rax, 9223372036854775807		; 7fffffffffffffffH
	mov	QWORD PTR _Max_possible$1[rsp], rax
; Line 60
	mov	rax, 9223372036854775807		; 7fffffffffffffffH
	cmp	QWORD PTR _Count$[rsp], rax
	jbe	SHORT $LN2@Get_size_o
; Line 61
	call	?_Throw_bad_array_new_length@std@@YAXXZ	; std::_Throw_bad_array_new_length
$LN2@Get_size_o:
; Line 65
	mov	rax, QWORD PTR _Count$[rsp]
	shl	rax, 1
$LN3@Get_size_o:
; Line 66
	add	rsp, 48					; 00000030H
	pop	rdi
	ret	0
??$_Get_size_of_n@$01@std@@YA_K_K@Z ENDP		; std::_Get_size_of_n<2>
_TEXT	ENDS
; Function compile flags: /Odtp /RTCsu
;	COMDAT ??$_Construct_in_place@PEA_WAEBQEA_W@std@@YAXAEAPEA_WAEBQEA_W@Z
_TEXT	SEGMENT
$T1 = 32
_Obj$ = 64
<_Args_0>$ = 72
??$_Construct_in_place@PEA_WAEBQEA_W@std@@YAXAEAPEA_WAEBQEA_W@Z PROC ; std::_Construct_in_place<wchar_t *,wchar_t * const &>, COMDAT
; File C:\Program Files (x86)\Microsoft Visual Studio\2019\Community\VC\Tools\MSVC\14.29.30133\include\xutility
; Line 142
$LN3:
	mov	QWORD PTR [rsp+16], rdx
	mov	QWORD PTR [rsp+8], rcx
	push	rdi
	sub	rsp, 48					; 00000030H
	mov	rcx, QWORD PTR _Obj$[rsp]
	call	??$addressof@PEA_W@std@@YAPEAPEA_WAEAPEA_W@Z ; std::addressof<wchar_t *>
	mov	rcx, rax
	call	??$_Voidify_iter@PEAPEA_W@std@@YAPEAXPEAPEA_W@Z ; std::_Voidify_iter<wchar_t * *>
	mov	rdx, rax
	mov	ecx, 8
	call	??2@YAPEAX_KPEAX@Z			; operator new
	mov	QWORD PTR $T1[rsp], rax
	mov	rcx, QWORD PTR <_Args_0>$[rsp]
	call	??$forward@AEBQEA_W@std@@YAAEBQEA_WAEBQEA_W@Z ; std::forward<wchar_t * const &>
	mov	rcx, QWORD PTR $T1[rsp]
	mov	rax, QWORD PTR [rax]
	mov	QWORD PTR [rcx], rax
; Line 151
	add	rsp, 48					; 00000030H
	pop	rdi
	ret	0
??$_Construct_in_place@PEA_WAEBQEA_W@std@@YAXAEAPEA_WAEBQEA_W@Z ENDP ; std::_Construct_in_place<wchar_t *,wchar_t * const &>
_TEXT	ENDS
; Function compile flags: /Odtp /RTCsu
;	COMDAT ??$_Deallocate@$0BA@$0A@@std@@YAXPEAX_K@Z
_TEXT	SEGMENT
_Ptr$ = 48
_Bytes$ = 56
??$_Deallocate@$0BA@$0A@@std@@YAXPEAX_K@Z PROC		; std::_Deallocate<16,0>, COMDAT
; File C:\Program Files (x86)\Microsoft Visual Studio\2019\Community\VC\Tools\MSVC\14.29.30133\include\xmemory
; Line 242
$LN4:
	mov	QWORD PTR [rsp+16], rdx
	mov	QWORD PTR [rsp+8], rcx
	push	rdi
	sub	rsp, 32					; 00000020H
; Line 251
	cmp	QWORD PTR _Bytes$[rsp], 4096		; 00001000H
	jb	SHORT $LN2@Deallocate
; Line 252
	lea	rdx, QWORD PTR _Bytes$[rsp]
	lea	rcx, QWORD PTR _Ptr$[rsp]
	call	?_Adjust_manually_vector_aligned@std@@YAXAEAPEAXAEA_K@Z ; std::_Adjust_manually_vector_aligned
$LN2@Deallocate:
; Line 255
	mov	rdx, QWORD PTR _Bytes$[rsp]
	mov	rcx, QWORD PTR _Ptr$[rsp]
	call	??3@YAXPEAX_K@Z				; operator delete
	npad	1
; Line 257
	add	rsp, 32					; 00000020H
	pop	rdi
	ret	0
??$_Deallocate@$0BA@$0A@@std@@YAXPEAX_K@Z ENDP		; std::_Deallocate<16,0>
_TEXT	ENDS
; Function compile flags: /Odtp /RTCsu
;	COMDAT ??$_Allocate@$0BA@U_Default_allocate_traits@std@@$0A@@std@@YAPEAX_K@Z
_TEXT	SEGMENT
_Bytes$ = 48
??$_Allocate@$0BA@U_Default_allocate_traits@std@@$0A@@std@@YAPEAX_K@Z PROC ; std::_Allocate<16,std::_Default_allocate_traits,0>, COMDAT
; File C:\Program Files (x86)\Microsoft Visual Studio\2019\Community\VC\Tools\MSVC\14.29.30133\include\xmemory
; Line 221
$LN5:
	mov	QWORD PTR [rsp+8], rcx
	push	rdi
	sub	rsp, 32					; 00000020H
; Line 228
	cmp	QWORD PTR _Bytes$[rsp], 4096		; 00001000H
	jb	SHORT $LN2@Allocate
; Line 229
	mov	rcx, QWORD PTR _Bytes$[rsp]
	call	??$_Allocate_manually_vector_aligned@U_Default_allocate_traits@std@@@std@@YAPEAX_K@Z ; std::_Allocate_manually_vector_aligned<std::_Default_allocate_traits>
	jmp	SHORT $LN1@Allocate
$LN2@Allocate:
; Line 234
	cmp	QWORD PTR _Bytes$[rsp], 0
	je	SHORT $LN3@Allocate
; Line 235
	mov	rcx, QWORD PTR _Bytes$[rsp]
	call	?_Allocate@_Default_allocate_traits@std@@SAPEAX_K@Z ; std::_Default_allocate_traits::_Allocate
	jmp	SHORT $LN1@Allocate
$LN3@Allocate:
; Line 238
	xor	eax, eax
$LN1@Allocate:
; Line 239
	add	rsp, 32					; 00000020H
	pop	rdi
	ret	0
??$_Allocate@$0BA@U_Default_allocate_traits@std@@$0A@@std@@YAPEAX_K@Z ENDP ; std::_Allocate<16,std::_Default_allocate_traits,0>
_TEXT	ENDS
; Function compile flags: /Odtp /RTCsu
;	COMDAT ??$_Get_size_of_n@$0BA@@std@@YA_K_K@Z
_TEXT	SEGMENT
_Overflow_is_possible$ = 32
_Max_possible$1 = 40
_Count$ = 64
??$_Get_size_of_n@$0BA@@std@@YA_K_K@Z PROC		; std::_Get_size_of_n<16>, COMDAT
; File C:\Program Files (x86)\Microsoft Visual Studio\2019\Community\VC\Tools\MSVC\14.29.30133\include\xmemory
; Line 55
$LN4:
	mov	QWORD PTR [rsp+8], rcx
	push	rdi
	sub	rsp, 48					; 00000030H
; Line 56
	mov	BYTE PTR _Overflow_is_possible$[rsp], 1
; Line 59
	mov	rax, 1152921504606846975		; 0fffffffffffffffH
	mov	QWORD PTR _Max_possible$1[rsp], rax
; Line 60
	mov	rax, 1152921504606846975		; 0fffffffffffffffH
	cmp	QWORD PTR _Count$[rsp], rax
	jbe	SHORT $LN2@Get_size_o
; Line 61
	call	?_Throw_bad_array_new_length@std@@YAXXZ	; std::_Throw_bad_array_new_length
$LN2@Get_size_o:
; Line 65
	imul	rax, QWORD PTR _Count$[rsp], 16
$LN3@Get_size_o:
; Line 66
	add	rsp, 48					; 00000030H
	pop	rdi
	ret	0
??$_Get_size_of_n@$0BA@@std@@YA_K_K@Z ENDP		; std::_Get_size_of_n<16>
_TEXT	ENDS
; Function compile flags: /Odtp /RTCsu
;	COMDAT ??$max@_K@std@@YAAEB_KAEB_K0@Z
_TEXT	SEGMENT
$T1 = 0
tv65 = 8
_Left$ = 32
_Right$ = 40
??$max@_K@std@@YAAEB_KAEB_K0@Z PROC			; std::max<unsigned __int64>, COMDAT
; File C:\Program Files (x86)\Microsoft Visual Studio\2019\Community\VC\Tools\MSVC\14.29.30133\include\utility
; Line 41
$LN5:
	mov	QWORD PTR [rsp+16], rdx
	mov	QWORD PTR [rsp+8], rcx
	push	rdi
	sub	rsp, 16
; Line 43
	mov	rax, QWORD PTR _Left$[rsp]
	mov	rcx, QWORD PTR _Right$[rsp]
	mov	rcx, QWORD PTR [rcx]
	cmp	QWORD PTR [rax], rcx
	jae	SHORT $LN3@max
	mov	rax, QWORD PTR _Right$[rsp]
	mov	QWORD PTR tv65[rsp], rax
	jmp	SHORT $LN4@max
$LN3@max:
	mov	rax, QWORD PTR _Left$[rsp]
	mov	QWORD PTR tv65[rsp], rax
$LN4@max:
	mov	rax, QWORD PTR tv65[rsp]
	mov	QWORD PTR $T1[rsp], rax
	mov	rax, QWORD PTR $T1[rsp]
; Line 44
	add	rsp, 16
	pop	rdi
	ret	0
??$max@_K@std@@YAAEB_KAEB_K0@Z ENDP			; std::max<unsigned __int64>
_TEXT	ENDS
; Function compile flags: /Odtp /RTCsu
;	COMDAT ??$_Unfancy@_W@std@@YAPEA_WPEA_W@Z
_TEXT	SEGMENT
_Ptr$ = 16
??$_Unfancy@_W@std@@YAPEA_WPEA_W@Z PROC			; std::_Unfancy<wchar_t>, COMDAT
; File C:\Program Files (x86)\Microsoft Visual Studio\2019\Community\VC\Tools\MSVC\14.29.30133\include\xstddef
; Line 265
$LN3:
	mov	QWORD PTR [rsp+8], rcx
	push	rdi
; Line 266
	mov	rax, QWORD PTR _Ptr$[rsp]
; Line 267
	pop	rdi
	ret	0
??$_Unfancy@_W@std@@YAPEA_WPEA_W@Z ENDP			; std::_Unfancy<wchar_t>
_TEXT	ENDS
; Function compile flags: /Odtp /RTCsu
;	COMDAT ??$_Reallocate_grow_by@V<lambda_25953b27f3c43b57ba59f021c7f225c5>@@_W@?$basic_string@_WU?$char_traits@_W@std@@V?$allocator@_W@2@@std@@AEAAAEAV01@_KV<lambda_25953b27f3c43b57ba59f021c7f225c5>@@_W@Z
_TEXT	SEGMENT
_My_data$ = 48
_Old_size$ = 56
_New_size$ = 64
_Old_capacity$ = 72
_New_capacity$ = 80
_Al$ = 88
_New_ptr$ = 104
_Raw_new$ = 120
_Old_ptr$4 = 128
__$ArrayPad$ = 144
this$ = 176
_Size_increase$ = 184
_Fn$ = 192
<_Args_0>$ = 200
??$_Reallocate_grow_by@V<lambda_25953b27f3c43b57ba59f021c7f225c5>@@_W@?$basic_string@_WU?$char_traits@_W@std@@V?$allocator@_W@2@@std@@AEAAAEAV01@_KV<lambda_25953b27f3c43b57ba59f021c7f225c5>@@_W@Z PROC ; std::basic_string<wchar_t,std::char_traits<wchar_t>,std::allocator<wchar_t> >::_Reallocate_grow_by<<lambda_25953b27f3c43b57ba59f021c7f225c5>,wchar_t>, COMDAT
; File C:\Program Files (x86)\Microsoft Visual Studio\2019\Community\VC\Tools\MSVC\14.29.30133\include\xstring
; Line 4504
$LN6:
	mov	WORD PTR [rsp+32], r9w
	mov	BYTE PTR [rsp+24], r8b
	mov	QWORD PTR [rsp+16], rdx
	mov	QWORD PTR [rsp+8], rcx
	push	rdi
	sub	rsp, 160				; 000000a0H
	lea	rdi, QWORD PTR [rsp+48]
	mov	ecx, 28
	mov	eax, -858993460				; ccccccccH
	rep stosd
	mov	rcx, QWORD PTR [rsp+176]
	mov	rax, QWORD PTR __security_cookie
	xor	rax, rsp
	mov	QWORD PTR __$ArrayPad$[rsp], rax
; Line 4507
	mov	rax, QWORD PTR this$[rsp]
	mov	QWORD PTR _My_data$[rsp], rax
; Line 4508
	mov	rax, QWORD PTR _My_data$[rsp]
	mov	rax, QWORD PTR [rax+24]
	mov	QWORD PTR _Old_size$[rsp], rax
; Line 4509
	mov	rcx, QWORD PTR this$[rsp]
	call	?max_size@?$basic_string@_WU?$char_traits@_W@std@@V?$allocator@_W@2@@std@@QEBA_KXZ ; std::basic_string<wchar_t,std::char_traits<wchar_t>,std::allocator<wchar_t> >::max_size
	sub	rax, QWORD PTR _Old_size$[rsp]
	cmp	rax, QWORD PTR _Size_increase$[rsp]
	jae	SHORT $LN2@Reallocate
; Line 4510
	call	?_Xlen_string@std@@YAXXZ		; std::_Xlen_string
$LN2@Reallocate:
; Line 4513
	mov	rax, QWORD PTR _Size_increase$[rsp]
	mov	rcx, QWORD PTR _Old_size$[rsp]
	add	rcx, rax
	mov	rax, rcx
	mov	QWORD PTR _New_size$[rsp], rax
; Line 4514
	mov	rax, QWORD PTR _My_data$[rsp]
	mov	rax, QWORD PTR [rax+32]
	mov	QWORD PTR _Old_capacity$[rsp], rax
; Line 4515
	mov	rdx, QWORD PTR _New_size$[rsp]
	mov	rcx, QWORD PTR this$[rsp]
	call	?_Calculate_growth@?$basic_string@_WU?$char_traits@_W@std@@V?$allocator@_W@2@@std@@AEBA_K_K@Z ; std::basic_string<wchar_t,std::char_traits<wchar_t>,std::allocator<wchar_t> >::_Calculate_growth
	mov	QWORD PTR _New_capacity$[rsp], rax
; Line 4516
	mov	rcx, QWORD PTR this$[rsp]
	call	?_Getal@?$basic_string@_WU?$char_traits@_W@std@@V?$allocator@_W@2@@std@@AEAAAEAV?$allocator@_W@2@XZ ; std::basic_string<wchar_t,std::char_traits<wchar_t>,std::allocator<wchar_t> >::_Getal
	mov	QWORD PTR _Al$[rsp], rax
; Line 4517
	mov	rax, QWORD PTR _New_capacity$[rsp]
	add	rax, 1
	mov	rcx, -1
	cmovb	rax, rcx
	mov	rdx, rax
	mov	rcx, QWORD PTR _Al$[rsp]
	call	?allocate@?$allocator@_W@std@@QEAAPEA_W_K@Z ; std::allocator<wchar_t>::allocate
	mov	QWORD PTR _New_ptr$[rsp], rax
; Line 4524
	mov	rcx, QWORD PTR _My_data$[rsp]
	call	?_Orphan_all@_Container_base12@std@@QEAAXXZ ; std::_Container_base12::_Orphan_all
; Line 4525
	mov	rax, QWORD PTR _My_data$[rsp]
	mov	rcx, QWORD PTR _New_size$[rsp]
	mov	QWORD PTR [rax+24], rcx
; Line 4526
	mov	rax, QWORD PTR _My_data$[rsp]
	mov	rcx, QWORD PTR _New_capacity$[rsp]
	mov	QWORD PTR [rax+32], rcx
; Line 4527
	mov	rcx, QWORD PTR _New_ptr$[rsp]
	call	??$_Unfancy@_W@std@@YAPEA_WPEA_W@Z	; std::_Unfancy<wchar_t>
	mov	QWORD PTR _Raw_new$[rsp], rax
; Line 4528
	cmp	QWORD PTR _Old_capacity$[rsp], 8
	jb	SHORT $LN3@Reallocate
; Line 4529
	mov	rax, QWORD PTR _My_data$[rsp]
	mov	rax, QWORD PTR [rax+8]
	mov	QWORD PTR _Old_ptr$4[rsp], rax
; Line 4530
	mov	rcx, QWORD PTR _Old_ptr$4[rsp]
	call	??$_Unfancy@_W@std@@YAPEA_WPEA_W@Z	; std::_Unfancy<wchar_t>
	movzx	ecx, WORD PTR <_Args_0>$[rsp]
	mov	WORD PTR [rsp+32], cx
	mov	r9, QWORD PTR _Old_size$[rsp]
	mov	r8, rax
	mov	rdx, QWORD PTR _Raw_new$[rsp]
	lea	rcx, QWORD PTR _Fn$[rsp]
	call	??R<lambda_25953b27f3c43b57ba59f021c7f225c5>@@QEBA@QEA_WQEB_W_K_W@Z ; <lambda_25953b27f3c43b57ba59f021c7f225c5>::operator()
; Line 4531
	mov	rax, QWORD PTR _Old_capacity$[rsp]
	inc	rax
	mov	r8, rax
	mov	rdx, QWORD PTR _Old_ptr$4[rsp]
	mov	rcx, QWORD PTR _Al$[rsp]
	call	?deallocate@?$allocator@_W@std@@QEAAXQEA_W_K@Z ; std::allocator<wchar_t>::deallocate
; Line 4532
	mov	rax, QWORD PTR _My_data$[rsp]
	mov	rcx, QWORD PTR _New_ptr$[rsp]
	mov	QWORD PTR [rax+8], rcx
; Line 4533
	jmp	SHORT $LN4@Reallocate
$LN3@Reallocate:
; Line 4534
	mov	rax, QWORD PTR _My_data$[rsp]
	add	rax, 8
	movzx	ecx, WORD PTR <_Args_0>$[rsp]
	mov	WORD PTR [rsp+32], cx
	mov	r9, QWORD PTR _Old_size$[rsp]
	mov	r8, rax
	mov	rdx, QWORD PTR _Raw_new$[rsp]
	lea	rcx, QWORD PTR _Fn$[rsp]
	call	??R<lambda_25953b27f3c43b57ba59f021c7f225c5>@@QEBA@QEA_WQEB_W_K_W@Z ; <lambda_25953b27f3c43b57ba59f021c7f225c5>::operator()
; Line 4535
	mov	rax, QWORD PTR _My_data$[rsp]
	add	rax, 8
	lea	rdx, QWORD PTR _New_ptr$[rsp]
	mov	rcx, rax
	call	??$_Construct_in_place@PEA_WAEBQEA_W@std@@YAXAEAPEA_WAEBQEA_W@Z ; std::_Construct_in_place<wchar_t *,wchar_t * const &>
$LN4@Reallocate:
; Line 4538
	mov	rax, QWORD PTR this$[rsp]
$LN5@Reallocate:
; Line 4539
	mov	rdi, rax
	mov	rcx, rsp
	lea	rdx, OFFSET FLAT:??$_Reallocate_grow_by@V<lambda_25953b27f3c43b57ba59f021c7f225c5>@@_W@?$basic_string@_WU?$char_traits@_W@std@@V?$allocator@_W@2@@std@@AEAAAEAV01@_KV<lambda_25953b27f3c43b57ba59f021c7f225c5>@@_W@Z$rtcFrameData
	call	_RTC_CheckStackVars
	mov	rax, rdi
	mov	rcx, QWORD PTR __$ArrayPad$[rsp]
	xor	rcx, rsp
	call	__security_check_cookie
	add	rsp, 160				; 000000a0H
	pop	rdi
	ret	0
??$_Reallocate_grow_by@V<lambda_25953b27f3c43b57ba59f021c7f225c5>@@_W@?$basic_string@_WU?$char_traits@_W@std@@V?$allocator@_W@2@@std@@AEAAAEAV01@_KV<lambda_25953b27f3c43b57ba59f021c7f225c5>@@_W@Z ENDP ; std::basic_string<wchar_t,std::char_traits<wchar_t>,std::allocator<wchar_t> >::_Reallocate_grow_by<<lambda_25953b27f3c43b57ba59f021c7f225c5>,wchar_t>
_TEXT	ENDS
; Function compile flags: /Odtp /RTCsu
;	COMDAT ??R<lambda_25953b27f3c43b57ba59f021c7f225c5>@@QEBA@QEA_WQEB_W_K_W@Z
_TEXT	SEGMENT
$T1 = 32
this$ = 64
_New_ptr$ = 72
_Old_ptr$ = 80
_Old_size$ = 88
_Ch$ = 96
??R<lambda_25953b27f3c43b57ba59f021c7f225c5>@@QEBA@QEA_WQEB_W_K_W@Z PROC ; <lambda_25953b27f3c43b57ba59f021c7f225c5>::operator(), COMDAT
; File C:\Program Files (x86)\Microsoft Visual Studio\2019\Community\VC\Tools\MSVC\14.29.30133\include\xstring
; Line 3839
$LN3:
	mov	QWORD PTR [rsp+32], r9
	mov	QWORD PTR [rsp+24], r8
	mov	QWORD PTR [rsp+16], rdx
	mov	QWORD PTR [rsp+8], rcx
	push	rdi
	sub	rsp, 48					; 00000030H
; Line 3840
	mov	r8, QWORD PTR _Old_size$[rsp]
	mov	rdx, QWORD PTR _Old_ptr$[rsp]
	mov	rcx, QWORD PTR _New_ptr$[rsp]
	call	?copy@?$_Char_traits@_WG@std@@SAPEA_WQEA_WQEB_W_K@Z ; std::_Char_traits<wchar_t,unsigned short>::copy
; Line 3841
	mov	rax, QWORD PTR _New_ptr$[rsp]
	mov	rcx, QWORD PTR _Old_size$[rsp]
	lea	rax, QWORD PTR [rax+rcx*2]
	lea	rdx, QWORD PTR _Ch$[rsp]
	mov	rcx, rax
	call	?assign@?$_WChar_traits@_W@std@@SAXAEA_WAEB_W@Z ; std::_WChar_traits<wchar_t>::assign
; Line 3842
	xor	eax, eax
	mov	WORD PTR $T1[rsp], ax
	mov	rax, QWORD PTR _New_ptr$[rsp]
	mov	rcx, QWORD PTR _Old_size$[rsp]
	lea	rax, QWORD PTR [rax+rcx*2+2]
	lea	rdx, QWORD PTR $T1[rsp]
	mov	rcx, rax
	call	?assign@?$_WChar_traits@_W@std@@SAXAEA_WAEB_W@Z ; std::_WChar_traits<wchar_t>::assign
; Line 3843
	add	rsp, 48					; 00000030H
	pop	rdi
	ret	0
??R<lambda_25953b27f3c43b57ba59f021c7f225c5>@@QEBA@QEA_WQEB_W_K_W@Z ENDP ; <lambda_25953b27f3c43b57ba59f021c7f225c5>::operator()
_TEXT	ENDS
; Function compile flags: /Odtp /RTCsu
;	COMDAT ??$_Destroy_in_place@PEA_W@std@@YAXAEAPEA_W@Z
_TEXT	SEGMENT
_Obj$ = 16
??$_Destroy_in_place@PEA_W@std@@YAXAEAPEA_W@Z PROC	; std::_Destroy_in_place<wchar_t *>, COMDAT
; File C:\Program Files (x86)\Microsoft Visual Studio\2019\Community\VC\Tools\MSVC\14.29.30133\include\xmemory
; Line 294
$LN3:
	mov	QWORD PTR [rsp+8], rcx
	push	rdi
; Line 300
	pop	rdi
	ret	0
??$_Destroy_in_place@PEA_W@std@@YAXAEAPEA_W@Z ENDP	; std::_Destroy_in_place<wchar_t *>
_TEXT	ENDS
; Function compile flags: /Odtp /RTCsu
;	COMDAT ??$_Unfancy@U_Container_proxy@std@@@std@@YAPEAU_Container_proxy@0@PEAU10@@Z
_TEXT	SEGMENT
_Ptr$ = 16
??$_Unfancy@U_Container_proxy@std@@@std@@YAPEAU_Container_proxy@0@PEAU10@@Z PROC ; std::_Unfancy<std::_Container_proxy>, COMDAT
; File C:\Program Files (x86)\Microsoft Visual Studio\2019\Community\VC\Tools\MSVC\14.29.30133\include\xstddef
; Line 265
$LN3:
	mov	QWORD PTR [rsp+8], rcx
	push	rdi
; Line 266
	mov	rax, QWORD PTR _Ptr$[rsp]
; Line 267
	pop	rdi
	ret	0
??$_Unfancy@U_Container_proxy@std@@@std@@YAPEAU_Container_proxy@0@PEAU10@@Z ENDP ; std::_Unfancy<std::_Container_proxy>
_TEXT	ENDS
; Function compile flags: /Odtp /RTCsu
;	COMDAT ??$?0$$V@?$_Compressed_pair@V?$allocator@_W@std@@V?$_String_val@U?$_Simple_types@_W@std@@@2@$00@std@@QEAA@U_Zero_then_variadic_args_t@1@@Z
_TEXT	SEGMENT
this$ = 48
__formal$ = 56
??$?0$$V@?$_Compressed_pair@V?$allocator@_W@std@@V?$_String_val@U?$_Simple_types@_W@std@@@2@$00@std@@QEAA@U_Zero_then_variadic_args_t@1@@Z PROC ; std::_Compressed_pair<std::allocator<wchar_t>,std::_String_val<std::_Simple_types<wchar_t> >,1>::_Compressed_pair<std::allocator<wchar_t>,std::_String_val<std::_Simple_types<wchar_t> >,1><>, COMDAT
; File C:\Program Files (x86)\Microsoft Visual Studio\2019\Community\VC\Tools\MSVC\14.29.30133\include\xmemory
; Line 1331
$LN3:
	mov	BYTE PTR [rsp+16], dl
	mov	QWORD PTR [rsp+8], rcx
	push	rdi
	sub	rsp, 32					; 00000020H
	mov	rcx, QWORD PTR this$[rsp]
	call	??0?$allocator@_W@std@@QEAA@XZ		; std::allocator<wchar_t>::allocator<wchar_t>
	mov	rax, QWORD PTR this$[rsp]
	mov	rcx, rax
	call	??0?$_String_val@U?$_Simple_types@_W@std@@@std@@QEAA@XZ ; std::_String_val<std::_Simple_types<wchar_t> >::_String_val<std::_Simple_types<wchar_t> >
	mov	rax, QWORD PTR this$[rsp]
	add	rsp, 32					; 00000020H
	pop	rdi
	ret	0
??$?0$$V@?$_Compressed_pair@V?$allocator@_W@std@@V?$_String_val@U?$_Simple_types@_W@std@@@2@$00@std@@QEAA@U_Zero_then_variadic_args_t@1@@Z ENDP ; std::_Compressed_pair<std::allocator<wchar_t>,std::_String_val<std::_Simple_types<wchar_t> >,1>::_Compressed_pair<std::allocator<wchar_t>,std::_String_val<std::_Simple_types<wchar_t> >,1><>
_TEXT	ENDS
; Function compile flags: /Odtp /RTCsu
;	COMDAT ??$_Alloc_proxy@V?$allocator@U_Container_proxy@std@@@std@@@_Container_base12@std@@QEAAX$$QEAV?$allocator@U_Container_proxy@std@@@1@@Z
_TEXT	SEGMENT
_New_proxy$ = 32
$T1 = 40
this$ = 64
_Al$ = 72
??$_Alloc_proxy@V?$allocator@U_Container_proxy@std@@@std@@@_Container_base12@std@@QEAAX$$QEAV?$allocator@U_Container_proxy@std@@@1@@Z PROC ; std::_Container_base12::_Alloc_proxy<std::allocator<std::_Container_proxy> >, COMDAT
; File C:\Program Files (x86)\Microsoft Visual Studio\2019\Community\VC\Tools\MSVC\14.29.30133\include\xmemory
; Line 1017
$LN3:
	mov	QWORD PTR [rsp+16], rdx
	mov	QWORD PTR [rsp+8], rcx
	push	rdi
	sub	rsp, 48					; 00000030H
; Line 1018
	mov	edx, 1
	mov	rcx, QWORD PTR _Al$[rsp]
	call	?allocate@?$allocator@U_Container_proxy@std@@@std@@QEAAPEAU_Container_proxy@2@_K@Z ; std::allocator<std::_Container_proxy>::allocate
	mov	rcx, rax
	call	??$_Unfancy@U_Container_proxy@std@@@std@@YAPEAU_Container_proxy@0@PEAU10@@Z ; std::_Unfancy<std::_Container_proxy>
	mov	QWORD PTR _New_proxy$[rsp], rax
; Line 1019
	mov	rax, QWORD PTR this$[rsp]
	mov	QWORD PTR $T1[rsp], rax
	lea	rdx, QWORD PTR $T1[rsp]
	mov	rcx, QWORD PTR _New_proxy$[rsp]
	call	??$_Construct_in_place@U_Container_proxy@std@@PEAU_Container_base12@2@@std@@YAXAEAU_Container_proxy@0@$$QEAPEAU_Container_base12@0@@Z ; std::_Construct_in_place<std::_Container_proxy,std::_Container_base12 *>
; Line 1020
	mov	rax, QWORD PTR this$[rsp]
	mov	rcx, QWORD PTR _New_proxy$[rsp]
	mov	QWORD PTR [rax], rcx
; Line 1021
	mov	rax, QWORD PTR _New_proxy$[rsp]
	mov	rcx, QWORD PTR this$[rsp]
	mov	QWORD PTR [rax], rcx
; Line 1022
	add	rsp, 48					; 00000030H
	pop	rdi
	ret	0
??$_Alloc_proxy@V?$allocator@U_Container_proxy@std@@@std@@@_Container_base12@std@@QEAAX$$QEAV?$allocator@U_Container_proxy@std@@@1@@Z ENDP ; std::_Container_base12::_Alloc_proxy<std::allocator<std::_Container_proxy> >
_TEXT	ENDS
; Function compile flags: /Odtp /RTCsu
;	COMDAT ??$?0_W@?$allocator@U_Container_proxy@std@@@std@@QEAA@AEBV?$allocator@_W@1@@Z
_TEXT	SEGMENT
this$ = 16
__formal$ = 24
??$?0_W@?$allocator@U_Container_proxy@std@@@std@@QEAA@AEBV?$allocator@_W@1@@Z PROC ; std::allocator<std::_Container_proxy>::allocator<std::_Container_proxy><wchar_t>, COMDAT
; File C:\Program Files (x86)\Microsoft Visual Studio\2019\Community\VC\Tools\MSVC\14.29.30133\include\xmemory
; Line 791
$LN3:
	mov	QWORD PTR [rsp+16], rdx
	mov	QWORD PTR [rsp+8], rcx
	push	rdi
	mov	rax, QWORD PTR this$[rsp]
	pop	rdi
	ret	0
??$?0_W@?$allocator@U_Container_proxy@std@@@std@@QEAA@AEBV?$allocator@_W@1@@Z ENDP ; std::allocator<std::_Container_proxy>::allocator<std::_Container_proxy><wchar_t>
_TEXT	ENDS
; Function compile flags: /Odtp /RTCsu
;	COMDAT ??$_Delete_plain_internal@V?$allocator@U_Container_proxy@std@@@std@@@std@@YAXAEAV?$allocator@U_Container_proxy@std@@@0@QEAU_Container_proxy@0@@Z
_TEXT	SEGMENT
_Al$ = 48
_Ptr$ = 56
??$_Delete_plain_internal@V?$allocator@U_Container_proxy@std@@@std@@@std@@YAXAEAV?$allocator@U_Container_proxy@std@@@0@QEAU_Container_proxy@0@@Z PROC ; std::_Delete_plain_internal<std::allocator<std::_Container_proxy> >, COMDAT
; File C:\Program Files (x86)\Microsoft Visual Studio\2019\Community\VC\Tools\MSVC\14.29.30133\include\xmemory
; Line 945
$LN3:
	mov	QWORD PTR [rsp+16], rdx
	mov	QWORD PTR [rsp+8], rcx
	push	rdi
	sub	rsp, 32					; 00000020H
; Line 949
	mov	rdx, QWORD PTR _Ptr$[rsp]
	mov	rcx, QWORD PTR _Al$[rsp]
	call	??$_Deallocate_plain@V?$allocator@U_Container_proxy@std@@@std@@@std@@YAXAEAV?$allocator@U_Container_proxy@std@@@0@QEAU_Container_proxy@0@@Z ; std::_Deallocate_plain<std::allocator<std::_Container_proxy> >
; Line 950
	add	rsp, 32					; 00000020H
	pop	rdi
	ret	0
??$_Delete_plain_internal@V?$allocator@U_Container_proxy@std@@@std@@@std@@YAXAEAV?$allocator@U_Container_proxy@std@@@0@QEAU_Container_proxy@0@@Z ENDP ; std::_Delete_plain_internal<std::allocator<std::_Container_proxy> >
_TEXT	ENDS
; Function compile flags: /Odtp /RTCsu
;	COMDAT ?allocate@?$allocator@U_Container_proxy@std@@@std@@QEAAPEAU_Container_proxy@2@_K@Z
_TEXT	SEGMENT
this$ = 48
_Count$ = 56
?allocate@?$allocator@U_Container_proxy@std@@@std@@QEAAPEAU_Container_proxy@2@_K@Z PROC ; std::allocator<std::_Container_proxy>::allocate, COMDAT
; File C:\Program Files (x86)\Microsoft Visual Studio\2019\Community\VC\Tools\MSVC\14.29.30133\include\xmemory
; Line 800
$LN3:
	mov	QWORD PTR [rsp+16], rdx
	mov	QWORD PTR [rsp+8], rcx
	push	rdi
	sub	rsp, 32					; 00000020H
; Line 801
	mov	rcx, QWORD PTR _Count$[rsp]
	call	??$_Get_size_of_n@$0BA@@std@@YA_K_K@Z	; std::_Get_size_of_n<16>
	mov	rcx, rax
	call	??$_Allocate@$0BA@U_Default_allocate_traits@std@@$0A@@std@@YAPEAX_K@Z ; std::_Allocate<16,std::_Default_allocate_traits,0>
; Line 802
	add	rsp, 32					; 00000020H
	pop	rdi
	ret	0
?allocate@?$allocator@U_Container_proxy@std@@@std@@QEAAPEAU_Container_proxy@2@_K@Z ENDP ; std::allocator<std::_Container_proxy>::allocate
_TEXT	ENDS
; Function compile flags: /Odtp /RTCsu
;	COMDAT ??$min@_K@std@@YAAEB_KAEB_K0@Z
_TEXT	SEGMENT
$T1 = 0
tv65 = 8
_Left$ = 32
_Right$ = 40
??$min@_K@std@@YAAEB_KAEB_K0@Z PROC			; std::min<unsigned __int64>, COMDAT
; File C:\Program Files (x86)\Microsoft Visual Studio\2019\Community\VC\Tools\MSVC\14.29.30133\include\utility
; Line 64
$LN5:
	mov	QWORD PTR [rsp+16], rdx
	mov	QWORD PTR [rsp+8], rcx
	push	rdi
	sub	rsp, 16
; Line 66
	mov	rax, QWORD PTR _Right$[rsp]
	mov	rcx, QWORD PTR _Left$[rsp]
	mov	rcx, QWORD PTR [rcx]
	cmp	QWORD PTR [rax], rcx
	jae	SHORT $LN3@min
	mov	rax, QWORD PTR _Right$[rsp]
	mov	QWORD PTR tv65[rsp], rax
	jmp	SHORT $LN4@min
$LN3@min:
	mov	rax, QWORD PTR _Left$[rsp]
	mov	QWORD PTR tv65[rsp], rax
$LN4@min:
	mov	rax, QWORD PTR tv65[rsp]
	mov	QWORD PTR $T1[rsp], rax
	mov	rax, QWORD PTR $T1[rsp]
; Line 67
	add	rsp, 16
	pop	rdi
	ret	0
??$min@_K@std@@YAAEB_KAEB_K0@Z ENDP			; std::min<unsigned __int64>
_TEXT	ENDS
; Function compile flags: /Odtp /RTCsu
;	COMDAT ??Bsentry@?$basic_ostream@_WU?$char_traits@_W@std@@@std@@QEBA_NXZ
_TEXT	SEGMENT
this$ = 16
??Bsentry@?$basic_ostream@_WU?$char_traits@_W@std@@@std@@QEBA_NXZ PROC ; std::basic_ostream<wchar_t,std::char_traits<wchar_t> >::sentry::operator bool, COMDAT
; File C:\Program Files (x86)\Microsoft Visual Studio\2019\Community\VC\Tools\MSVC\14.29.30133\include\ostream
; Line 123
$LN3:
	mov	QWORD PTR [rsp+8], rcx
	push	rdi
; Line 124
	mov	rax, QWORD PTR this$[rsp]
	movzx	eax, BYTE PTR [rax+8]
; Line 125
	pop	rdi
	ret	0
??Bsentry@?$basic_ostream@_WU?$char_traits@_W@std@@@std@@QEBA_NXZ ENDP ; std::basic_ostream<wchar_t,std::char_traits<wchar_t> >::sentry::operator bool
_TEXT	ENDS
; Function compile flags: /Odtp /RTCsu
;	COMDAT ??1sentry@?$basic_ostream@_WU?$char_traits@_W@std@@@std@@QEAA@XZ
_TEXT	SEGMENT
_Zero_uncaught_exceptions$ = 32
tv72 = 33
this$ = 64
??1sentry@?$basic_ostream@_WU?$char_traits@_W@std@@@std@@QEAA@XZ PROC ; std::basic_ostream<wchar_t,std::char_traits<wchar_t> >::sentry::~sentry, COMDAT
; File C:\Program Files (x86)\Microsoft Visual Studio\2019\Community\VC\Tools\MSVC\14.29.30133\include\ostream
; Line 108
$LN6:
	mov	QWORD PTR [rsp+8], rcx
	push	rdi
	sub	rsp, 48					; 00000030H
; Line 112
	call	?uncaught_exception@std@@YA_NXZ		; std::uncaught_exception
	movzx	eax, al
	test	eax, eax
	jne	SHORT $LN4@sentry
	mov	BYTE PTR tv72[rsp], 1
	jmp	SHORT $LN5@sentry
$LN4@sentry:
	mov	BYTE PTR tv72[rsp], 0
$LN5@sentry:
	movzx	eax, BYTE PTR tv72[rsp]
	mov	BYTE PTR _Zero_uncaught_exceptions$[rsp], al
; Line 117
	movzx	eax, BYTE PTR _Zero_uncaught_exceptions$[rsp]
	test	eax, eax
	je	SHORT $LN2@sentry
; Line 118
	mov	rax, QWORD PTR this$[rsp]
	mov	rcx, QWORD PTR [rax]
	call	QWORD PTR __imp_?_Osfx@?$basic_ostream@_WU?$char_traits@_W@std@@@std@@QEAAXXZ
$LN2@sentry:
; Line 120
	mov	rcx, QWORD PTR this$[rsp]
	call	??1_Sentry_base@?$basic_ostream@_WU?$char_traits@_W@std@@@std@@QEAA@XZ ; std::basic_ostream<wchar_t,std::char_traits<wchar_t> >::_Sentry_base::~_Sentry_base
	npad	1
	add	rsp, 48					; 00000030H
	pop	rdi
	ret	0
??1sentry@?$basic_ostream@_WU?$char_traits@_W@std@@@std@@QEAA@XZ ENDP ; std::basic_ostream<wchar_t,std::char_traits<wchar_t> >::sentry::~sentry
_TEXT	ENDS
; Function compile flags: /Odtp /RTCsu
;	COMDAT ??0sentry@?$basic_ostream@_WU?$char_traits@_W@std@@@std@@QEAA@AEAV12@@Z
_TEXT	SEGMENT
_Tied$ = 32
this$ = 64
_Ostr$ = 72
??0sentry@?$basic_ostream@_WU?$char_traits@_W@std@@@std@@QEAA@AEAV12@@Z PROC ; std::basic_ostream<wchar_t,std::char_traits<wchar_t> >::sentry::sentry, COMDAT
; File C:\Program Files (x86)\Microsoft Visual Studio\2019\Community\VC\Tools\MSVC\14.29.30133\include\ostream
; Line 91
$LN7:
	mov	QWORD PTR [rsp+16], rdx
	mov	QWORD PTR [rsp+8], rcx
	push	rdi
	sub	rsp, 48					; 00000030H
	mov	rdx, QWORD PTR _Ostr$[rsp]
	mov	rcx, QWORD PTR this$[rsp]
	call	??0_Sentry_base@?$basic_ostream@_WU?$char_traits@_W@std@@@std@@QEAA@AEAV12@@Z ; std::basic_ostream<wchar_t,std::char_traits<wchar_t> >::_Sentry_base::_Sentry_base
	npad	1
; Line 92
	mov	rax, QWORD PTR _Ostr$[rsp]
	mov	rax, QWORD PTR [rax]
	movsxd	rax, DWORD PTR [rax+4]
	mov	rcx, QWORD PTR _Ostr$[rsp]
	add	rcx, rax
	mov	rax, rcx
	mov	rcx, rax
	call	QWORD PTR __imp_?good@ios_base@std@@QEBA_NXZ
	movzx	eax, al
	test	eax, eax
	jne	SHORT $LN2@sentry
; Line 93
	mov	rax, QWORD PTR this$[rsp]
	mov	BYTE PTR [rax+8], 0
; Line 94
	jmp	SHORT $LN1@sentry
$LN2@sentry:
; Line 97
	mov	rax, QWORD PTR _Ostr$[rsp]
	mov	rax, QWORD PTR [rax]
	movsxd	rax, DWORD PTR [rax+4]
	mov	rcx, QWORD PTR _Ostr$[rsp]
	add	rcx, rax
	mov	rax, rcx
	mov	rcx, rax
	call	QWORD PTR __imp_?tie@?$basic_ios@_WU?$char_traits@_W@std@@@std@@QEBAPEAV?$basic_ostream@_WU?$char_traits@_W@std@@@2@XZ
	mov	QWORD PTR _Tied$[rsp], rax
; Line 98
	cmp	QWORD PTR _Tied$[rsp], 0
	je	SHORT $LN4@sentry
	mov	rax, QWORD PTR _Ostr$[rsp]
	cmp	QWORD PTR _Tied$[rsp], rax
	jne	SHORT $LN3@sentry
$LN4@sentry:
; Line 99
	mov	rax, QWORD PTR this$[rsp]
	mov	BYTE PTR [rax+8], 1
; Line 100
	jmp	SHORT $LN1@sentry
$LN3@sentry:
; Line 103
	mov	rcx, QWORD PTR _Tied$[rsp]
	call	QWORD PTR __imp_?flush@?$basic_ostream@_WU?$char_traits@_W@std@@@std@@QEAAAEAV12@XZ
; Line 104
	mov	rax, QWORD PTR _Ostr$[rsp]
	mov	rax, QWORD PTR [rax]
	movsxd	rax, DWORD PTR [rax+4]
	mov	rcx, QWORD PTR _Ostr$[rsp]
	add	rcx, rax
	mov	rax, rcx
	mov	rcx, rax
	call	QWORD PTR __imp_?good@ios_base@std@@QEBA_NXZ
	mov	rcx, QWORD PTR this$[rsp]
	mov	BYTE PTR [rcx+8], al
$LN1@sentry:
; Line 105
	mov	rax, QWORD PTR this$[rsp]
	add	rsp, 48					; 00000030H
	pop	rdi
	ret	0
??0sentry@?$basic_ostream@_WU?$char_traits@_W@std@@@std@@QEAA@AEAV12@@Z ENDP ; std::basic_ostream<wchar_t,std::char_traits<wchar_t> >::sentry::sentry
_TEXT	ENDS
;	COMDAT text$x
text$x	SEGMENT
_Tied$ = 32
this$ = 64
_Ostr$ = 72
?dtor$0@?0???0sentry@?$basic_ostream@_WU?$char_traits@_W@std@@@std@@QEAA@AEAV12@@Z@4HA PROC ; `std::basic_ostream<wchar_t,std::char_traits<wchar_t> >::sentry::sentry'::`1'::dtor$0
	mov	QWORD PTR [rsp+8], rcx
	mov	QWORD PTR [rsp+16], rdx
	push	rbp
	push	rdi
	sub	rsp, 40					; 00000028H
	mov	rbp, rdx
	mov	rcx, QWORD PTR this$[rbp]
	call	??1_Sentry_base@?$basic_ostream@_WU?$char_traits@_W@std@@@std@@QEAA@XZ ; std::basic_ostream<wchar_t,std::char_traits<wchar_t> >::_Sentry_base::~_Sentry_base
	add	rsp, 40					; 00000028H
	pop	rdi
	pop	rbp
	ret	0
?dtor$0@?0???0sentry@?$basic_ostream@_WU?$char_traits@_W@std@@@std@@QEAA@AEAV12@@Z@4HA ENDP ; `std::basic_ostream<wchar_t,std::char_traits<wchar_t> >::sentry::sentry'::`1'::dtor$0
text$x	ENDS
; Function compile flags: /Odtp /RTCsu
;	COMDAT text$x
text$x	SEGMENT
_Tied$ = 32
this$ = 64
_Ostr$ = 72
?dtor$0@?0???0sentry@?$basic_ostream@_WU?$char_traits@_W@std@@@std@@QEAA@AEAV12@@Z@4HA PROC ; `std::basic_ostream<wchar_t,std::char_traits<wchar_t> >::sentry::sentry'::`1'::dtor$0
	mov	QWORD PTR [rsp+8], rcx
	mov	QWORD PTR [rsp+16], rdx
	push	rbp
	push	rdi
	sub	rsp, 40					; 00000028H
	mov	rbp, rdx
	mov	rcx, QWORD PTR this$[rbp]
	call	??1_Sentry_base@?$basic_ostream@_WU?$char_traits@_W@std@@@std@@QEAA@XZ ; std::basic_ostream<wchar_t,std::char_traits<wchar_t> >::_Sentry_base::~_Sentry_base
	add	rsp, 40					; 00000028H
	pop	rdi
	pop	rbp
	ret	0
?dtor$0@?0???0sentry@?$basic_ostream@_WU?$char_traits@_W@std@@@std@@QEAA@AEAV12@@Z@4HA ENDP ; `std::basic_ostream<wchar_t,std::char_traits<wchar_t> >::sentry::sentry'::`1'::dtor$0
text$x	ENDS
; Function compile flags: /Odtp /RTCsu
;	COMDAT ??1_Sentry_base@?$basic_ostream@_WU?$char_traits@_W@std@@@std@@QEAA@XZ
_TEXT	SEGMENT
_Rdbuf$ = 32
tv72 = 40
this$ = 64
??1_Sentry_base@?$basic_ostream@_WU?$char_traits@_W@std@@@std@@QEAA@XZ PROC ; std::basic_ostream<wchar_t,std::char_traits<wchar_t> >::_Sentry_base::~_Sentry_base, COMDAT
; File C:\Program Files (x86)\Microsoft Visual Studio\2019\Community\VC\Tools\MSVC\14.29.30133\include\ostream
; Line 77
$LN4:
	mov	QWORD PTR [rsp+8], rcx
	push	rdi
	sub	rsp, 48					; 00000030H
; Line 78
	mov	rax, QWORD PTR this$[rsp]
	mov	rax, QWORD PTR [rax]
	mov	QWORD PTR tv72[rsp], rax
	mov	rax, QWORD PTR tv72[rsp]
	mov	rax, QWORD PTR [rax]
	movsxd	rax, DWORD PTR [rax+4]
	mov	rcx, QWORD PTR tv72[rsp]
	add	rcx, rax
	mov	rax, rcx
	mov	rcx, rax
	call	QWORD PTR __imp_?rdbuf@?$basic_ios@_WU?$char_traits@_W@std@@@std@@QEBAPEAV?$basic_streambuf@_WU?$char_traits@_W@std@@@2@XZ
	mov	QWORD PTR _Rdbuf$[rsp], rax
; Line 79
	cmp	QWORD PTR _Rdbuf$[rsp], 0
	je	SHORT $LN2@Sentry_bas
; Line 80
	mov	rax, QWORD PTR _Rdbuf$[rsp]
	mov	rax, QWORD PTR [rax]
	mov	rcx, QWORD PTR _Rdbuf$[rsp]
	call	QWORD PTR [rax+16]
	npad	1
$LN2@Sentry_bas:
; Line 82
	add	rsp, 48					; 00000030H
	pop	rdi
	ret	0
??1_Sentry_base@?$basic_ostream@_WU?$char_traits@_W@std@@@std@@QEAA@XZ ENDP ; std::basic_ostream<wchar_t,std::char_traits<wchar_t> >::_Sentry_base::~_Sentry_base
_TEXT	ENDS
; Function compile flags: /Odtp /RTCsu
;	COMDAT ??0_Sentry_base@?$basic_ostream@_WU?$char_traits@_W@std@@@std@@QEAA@AEAV12@@Z
_TEXT	SEGMENT
_Rdbuf$ = 32
tv73 = 40
this$ = 64
_Ostr$ = 72
??0_Sentry_base@?$basic_ostream@_WU?$char_traits@_W@std@@@std@@QEAA@AEAV12@@Z PROC ; std::basic_ostream<wchar_t,std::char_traits<wchar_t> >::_Sentry_base::_Sentry_base, COMDAT
; File C:\Program Files (x86)\Microsoft Visual Studio\2019\Community\VC\Tools\MSVC\14.29.30133\include\ostream
; Line 70
$LN4:
	mov	QWORD PTR [rsp+16], rdx
	mov	QWORD PTR [rsp+8], rcx
	push	rdi
	sub	rsp, 48					; 00000030H
	mov	rax, QWORD PTR this$[rsp]
	mov	rcx, QWORD PTR _Ostr$[rsp]
	mov	QWORD PTR [rax], rcx
; Line 71
	mov	rax, QWORD PTR this$[rsp]
	mov	rax, QWORD PTR [rax]
	mov	QWORD PTR tv73[rsp], rax
	mov	rax, QWORD PTR tv73[rsp]
	mov	rax, QWORD PTR [rax]
	movsxd	rax, DWORD PTR [rax+4]
	mov	rcx, QWORD PTR tv73[rsp]
	add	rcx, rax
	mov	rax, rcx
	mov	rcx, rax
	call	QWORD PTR __imp_?rdbuf@?$basic_ios@_WU?$char_traits@_W@std@@@std@@QEBAPEAV?$basic_streambuf@_WU?$char_traits@_W@std@@@2@XZ
	mov	QWORD PTR _Rdbuf$[rsp], rax
; Line 72
	cmp	QWORD PTR _Rdbuf$[rsp], 0
	je	SHORT $LN2@Sentry_bas
; Line 73
	mov	rax, QWORD PTR _Rdbuf$[rsp]
	mov	rax, QWORD PTR [rax]
	mov	rcx, QWORD PTR _Rdbuf$[rsp]
	call	QWORD PTR [rax+8]
$LN2@Sentry_bas:
; Line 75
	mov	rax, QWORD PTR this$[rsp]
	add	rsp, 48					; 00000030H
	pop	rdi
	ret	0
??0_Sentry_base@?$basic_ostream@_WU?$char_traits@_W@std@@@std@@QEAA@AEAV12@@Z ENDP ; std::basic_ostream<wchar_t,std::char_traits<wchar_t> >::_Sentry_base::_Sentry_base
_TEXT	ENDS
; Function compile flags: /Odtp /RTCsu
;	COMDAT ??$use_facet@V?$ctype@_W@std@@@std@@YAAEBV?$ctype@_W@0@AEBVlocale@0@@Z
_TEXT	SEGMENT
_Lock$6 = 36
_Psave$7 = 72
_Id$8 = 88
_Pf$9 = 96
_Pfmod$10 = 104
_Psave_guard$11 = 120
$T12 = 144
__$ArrayPad$ = 152
_Loc$ = 176
??$use_facet@V?$ctype@_W@std@@@std@@YAAEBV?$ctype@_W@0@AEBVlocale@0@@Z PROC ; std::use_facet<std::ctype<wchar_t> >, COMDAT
; File C:\Program Files (x86)\Microsoft Visual Studio\2019\Community\VC\Tools\MSVC\14.29.30133\include\xlocale
; Line 422
$LN11:
	mov	QWORD PTR [rsp+8], rcx
	push	rdi
	sub	rsp, 160				; 000000a0H
	lea	rdi, QWORD PTR [rsp+32]
	mov	ecx, 32					; 00000020H
	mov	eax, -858993460				; ccccccccH
	rep stosd
	mov	rcx, QWORD PTR [rsp+176]
	mov	rax, QWORD PTR __security_cookie
	xor	rax, rsp
	mov	QWORD PTR __$ArrayPad$[rsp], rax
; Line 423
	xor	edx, edx
	lea	rcx, QWORD PTR _Lock$6[rsp]
	call	QWORD PTR __imp_??0_Lockit@std@@QEAA@H@Z
	npad	1
; Line 424
	mov	rax, QWORD PTR ?_Psave@?$_Facetptr@V?$ctype@_W@std@@@std@@2PEBVfacet@locale@2@EB ; std::_Facetptr<std::ctype<wchar_t> >::_Psave
	mov	QWORD PTR _Psave$7[rsp], rax
; Line 426
	mov	rcx, QWORD PTR __imp_?id@?$ctype@_W@std@@2V0locale@2@A
	call	QWORD PTR __imp_??Bid@locale@std@@QEAA_KXZ
	mov	QWORD PTR _Id$8[rsp], rax
; Line 427
	mov	rdx, QWORD PTR _Id$8[rsp]
	mov	rcx, QWORD PTR _Loc$[rsp]
	call	?_Getfacet@locale@std@@QEBAPEBVfacet@12@_K@Z ; std::locale::_Getfacet
	mov	QWORD PTR _Pf$9[rsp], rax
; Line 429
	cmp	QWORD PTR _Pf$9[rsp], 0
	jne	$LN2@use_facet
; Line 430
	cmp	QWORD PTR _Psave$7[rsp], 0
	je	SHORT $LN3@use_facet
; Line 431
	mov	rax, QWORD PTR _Psave$7[rsp]
	mov	QWORD PTR _Pf$9[rsp], rax
	jmp	$LN2@use_facet
$LN3@use_facet:
; Line 432
	mov	rdx, QWORD PTR _Loc$[rsp]
	lea	rcx, QWORD PTR _Psave$7[rsp]
	call	QWORD PTR __imp_?_Getcat@?$ctype@_W@std@@SA_KPEAPEBVfacet@locale@2@PEBV42@@Z
	cmp	rax, -1
	jne	SHORT $LN5@use_facet
; Line 434
	call	?_Throw_bad_cast@std@@YAXXZ		; std::_Throw_bad_cast
	npad	1
; Line 438
	jmp	SHORT $LN2@use_facet
$LN5@use_facet:
; Line 439
	mov	rax, QWORD PTR _Psave$7[rsp]
	mov	QWORD PTR _Pfmod$10[rsp], rax
; Line 440
	mov	edx, 8
	lea	rcx, QWORD PTR _Psave_guard$11[rsp]
	call	?__autoclassinit2@?$unique_ptr@V_Facet_base@std@@U?$default_delete@V_Facet_base@std@@@2@@std@@QEAAX_K@Z
	mov	rdx, QWORD PTR _Pfmod$10[rsp]
	lea	rcx, QWORD PTR _Psave_guard$11[rsp]
	call	??$?0U?$default_delete@V_Facet_base@std@@@std@@$0A@@?$unique_ptr@V_Facet_base@std@@U?$default_delete@V_Facet_base@std@@@2@@std@@QEAA@PEAV_Facet_base@1@@Z ; std::unique_ptr<std::_Facet_base,std::default_delete<std::_Facet_base> >::unique_ptr<std::_Facet_base,std::default_delete<std::_Facet_base> ><std::default_delete<std::_Facet_base>,0>
	npad	1
; Line 445
	mov	rcx, QWORD PTR _Pfmod$10[rsp]
	call	?_Facet_Register@std@@YAXPEAV_Facet_base@1@@Z ; std::_Facet_Register
; Line 448
	mov	rax, QWORD PTR _Pfmod$10[rsp]
	mov	rax, QWORD PTR [rax]
	mov	rcx, QWORD PTR _Pfmod$10[rsp]
	call	QWORD PTR [rax+8]
; Line 449
	mov	rax, QWORD PTR _Psave$7[rsp]
	mov	QWORD PTR ?_Psave@?$_Facetptr@V?$ctype@_W@std@@@std@@2PEBVfacet@locale@2@EB, rax ; std::_Facetptr<std::ctype<wchar_t> >::_Psave
; Line 450
	mov	rax, QWORD PTR _Psave$7[rsp]
	mov	QWORD PTR _Pf$9[rsp], rax
; Line 452
	lea	rcx, QWORD PTR _Psave_guard$11[rsp]
	call	?release@?$unique_ptr@V_Facet_base@std@@U?$default_delete@V_Facet_base@std@@@2@@std@@QEAAPEAV_Facet_base@2@XZ ; std::unique_ptr<std::_Facet_base,std::default_delete<std::_Facet_base> >::release
	npad	1
; Line 453
	lea	rcx, QWORD PTR _Psave_guard$11[rsp]
	call	??1?$unique_ptr@V_Facet_base@std@@U?$default_delete@V_Facet_base@std@@@2@@std@@QEAA@XZ ; std::unique_ptr<std::_Facet_base,std::default_delete<std::_Facet_base> >::~unique_ptr<std::_Facet_base,std::default_delete<std::_Facet_base> >
$LN2@use_facet:
; Line 456
	mov	rax, QWORD PTR _Pf$9[rsp]
	mov	QWORD PTR $T12[rsp], rax
	lea	rcx, QWORD PTR _Lock$6[rsp]
	call	QWORD PTR __imp_??1_Lockit@std@@QEAA@XZ
	mov	rax, QWORD PTR $T12[rsp]
; Line 458
	mov	rdi, rax
	mov	rcx, rsp
	lea	rdx, OFFSET FLAT:??$use_facet@V?$ctype@_W@std@@@std@@YAAEBV?$ctype@_W@0@AEBVlocale@0@@Z$rtcFrameData
	call	_RTC_CheckStackVars
	mov	rax, rdi
	mov	rcx, QWORD PTR __$ArrayPad$[rsp]
	xor	rcx, rsp
	call	__security_check_cookie
	add	rsp, 160				; 000000a0H
	pop	rdi
	ret	0
$LN10@use_facet:
??$use_facet@V?$ctype@_W@std@@@std@@YAAEBV?$ctype@_W@0@AEBVlocale@0@@Z ENDP ; std::use_facet<std::ctype<wchar_t> >
_TEXT	ENDS
;	COMDAT text$x
text$x	SEGMENT
_Lock$6 = 36
_Psave$7 = 72
_Id$8 = 88
_Pf$9 = 96
_Pfmod$10 = 104
_Psave_guard$11 = 120
$T12 = 144
__$ArrayPad$ = 152
_Loc$ = 176
?dtor$0@?0???$use_facet@V?$ctype@_W@std@@@std@@YAAEBV?$ctype@_W@0@AEBVlocale@0@@Z@4HA PROC ; `std::use_facet<std::ctype<wchar_t> >'::`1'::dtor$0
	mov	QWORD PTR [rsp+8], rcx
	mov	QWORD PTR [rsp+16], rdx
	push	rbp
	push	rdi
	sub	rsp, 40					; 00000028H
	mov	rbp, rdx
	lea	rcx, QWORD PTR _Lock$6[rbp]
	call	QWORD PTR __imp_??1_Lockit@std@@QEAA@XZ
	add	rsp, 40					; 00000028H
	pop	rdi
	pop	rbp
	ret	0
?dtor$0@?0???$use_facet@V?$ctype@_W@std@@@std@@YAAEBV?$ctype@_W@0@AEBVlocale@0@@Z@4HA ENDP ; `std::use_facet<std::ctype<wchar_t> >'::`1'::dtor$0
text$x	ENDS
;	COMDAT text$x
text$x	SEGMENT
_Lock$6 = 36
_Psave$7 = 72
_Id$8 = 88
_Pf$9 = 96
_Pfmod$10 = 104
_Psave_guard$11 = 120
$T12 = 144
__$ArrayPad$ = 152
_Loc$ = 176
?dtor$1@?0???$use_facet@V?$ctype@_W@std@@@std@@YAAEBV?$ctype@_W@0@AEBVlocale@0@@Z@4HA PROC ; `std::use_facet<std::ctype<wchar_t> >'::`1'::dtor$1
	mov	QWORD PTR [rsp+8], rcx
	mov	QWORD PTR [rsp+16], rdx
	push	rbp
	push	rdi
	sub	rsp, 40					; 00000028H
	mov	rbp, rdx
	lea	rcx, QWORD PTR _Psave_guard$11[rbp]
	call	??1?$unique_ptr@V_Facet_base@std@@U?$default_delete@V_Facet_base@std@@@2@@std@@QEAA@XZ ; std::unique_ptr<std::_Facet_base,std::default_delete<std::_Facet_base> >::~unique_ptr<std::_Facet_base,std::default_delete<std::_Facet_base> >
	add	rsp, 40					; 00000028H
	pop	rdi
	pop	rbp
	ret	0
?dtor$1@?0???$use_facet@V?$ctype@_W@std@@@std@@YAAEBV?$ctype@_W@0@AEBVlocale@0@@Z@4HA ENDP ; `std::use_facet<std::ctype<wchar_t> >'::`1'::dtor$1
text$x	ENDS
; Function compile flags: /Odtp /RTCsu
;	COMDAT text$x
text$x	SEGMENT
_Lock$6 = 36
_Psave$7 = 72
_Id$8 = 88
_Pf$9 = 96
_Pfmod$10 = 104
_Psave_guard$11 = 120
$T12 = 144
__$ArrayPad$ = 152
_Loc$ = 176
?dtor$0@?0???$use_facet@V?$ctype@_W@std@@@std@@YAAEBV?$ctype@_W@0@AEBVlocale@0@@Z@4HA PROC ; `std::use_facet<std::ctype<wchar_t> >'::`1'::dtor$0
	mov	QWORD PTR [rsp+8], rcx
	mov	QWORD PTR [rsp+16], rdx
	push	rbp
	push	rdi
	sub	rsp, 40					; 00000028H
	mov	rbp, rdx
	lea	rcx, QWORD PTR _Lock$6[rbp]
	call	QWORD PTR __imp_??1_Lockit@std@@QEAA@XZ
	add	rsp, 40					; 00000028H
	pop	rdi
	pop	rbp
	ret	0
?dtor$0@?0???$use_facet@V?$ctype@_W@std@@@std@@YAAEBV?$ctype@_W@0@AEBVlocale@0@@Z@4HA ENDP ; `std::use_facet<std::ctype<wchar_t> >'::`1'::dtor$0
text$x	ENDS
; Function compile flags: /Odtp /RTCsu
;	COMDAT text$x
text$x	SEGMENT
_Lock$6 = 36
_Psave$7 = 72
_Id$8 = 88
_Pf$9 = 96
_Pfmod$10 = 104
_Psave_guard$11 = 120
$T12 = 144
__$ArrayPad$ = 152
_Loc$ = 176
?dtor$1@?0???$use_facet@V?$ctype@_W@std@@@std@@YAAEBV?$ctype@_W@0@AEBVlocale@0@@Z@4HA PROC ; `std::use_facet<std::ctype<wchar_t> >'::`1'::dtor$1
	mov	QWORD PTR [rsp+8], rcx
	mov	QWORD PTR [rsp+16], rdx
	push	rbp
	push	rdi
	sub	rsp, 40					; 00000028H
	mov	rbp, rdx
	lea	rcx, QWORD PTR _Psave_guard$11[rbp]
	call	??1?$unique_ptr@V_Facet_base@std@@U?$default_delete@V_Facet_base@std@@@2@@std@@QEAA@XZ ; std::unique_ptr<std::_Facet_base,std::default_delete<std::_Facet_base> >::~unique_ptr<std::_Facet_base,std::default_delete<std::_Facet_base> >
	add	rsp, 40					; 00000028H
	pop	rdi
	pop	rbp
	ret	0
?dtor$1@?0???$use_facet@V?$ctype@_W@std@@@std@@YAAEBV?$ctype@_W@0@AEBVlocale@0@@Z@4HA ENDP ; `std::use_facet<std::ctype<wchar_t> >'::`1'::dtor$1
text$x	ENDS
; Function compile flags: /Odtp /RTCsu
;	COMDAT ??$?8_WU?$char_traits@_W@std@@V?$allocator@_W@1@@std@@YA_NAEBV?$basic_string@_WU?$char_traits@_W@std@@V?$allocator@_W@2@@0@QEB_W@Z
_TEXT	SEGMENT
_Left$ = 48
_Right$ = 56
??$?8_WU?$char_traits@_W@std@@V?$allocator@_W@1@@std@@YA_NAEBV?$basic_string@_WU?$char_traits@_W@std@@V?$allocator@_W@2@@0@QEB_W@Z PROC ; std::operator==<wchar_t,std::char_traits<wchar_t>,std::allocator<wchar_t> >, COMDAT
; File C:\Program Files (x86)\Microsoft Visual Studio\2019\Community\VC\Tools\MSVC\14.29.30133\include\xstring
; Line 4768
$LN3:
	mov	QWORD PTR [rsp+16], rdx
	mov	QWORD PTR [rsp+8], rcx
	push	rdi
	sub	rsp, 32					; 00000020H
; Line 4769
	mov	rdx, QWORD PTR _Right$[rsp]
	mov	rcx, QWORD PTR _Left$[rsp]
	call	?_Equal@?$basic_string@_WU?$char_traits@_W@std@@V?$allocator@_W@2@@std@@QEBA_NQEB_W@Z ; std::basic_string<wchar_t,std::char_traits<wchar_t>,std::allocator<wchar_t> >::_Equal
; Line 4770
	add	rsp, 32					; 00000020H
	pop	rdi
	ret	0
??$?8_WU?$char_traits@_W@std@@V?$allocator@_W@1@@std@@YA_NAEBV?$basic_string@_WU?$char_traits@_W@std@@V?$allocator@_W@2@@0@QEB_W@Z ENDP ; std::operator==<wchar_t,std::char_traits<wchar_t>,std::allocator<wchar_t> >
_TEXT	ENDS
; Function compile flags: /Odtp /RTCsu
;	COMDAT ??$?5_WU?$char_traits@_W@std@@V?$allocator@_W@1@@std@@YAAEAV?$basic_istream@_WU?$char_traits@_W@std@@@0@AEAV10@AEAV?$basic_string@_WU?$char_traits@_W@std@@V?$allocator@_W@2@@0@@Z
_TEXT	SEGMENT
_Istr$ = 48
_Str$ = 56
??$?5_WU?$char_traits@_W@std@@V?$allocator@_W@1@@std@@YAAEAV?$basic_istream@_WU?$char_traits@_W@std@@@0@AEAV10@AEAV?$basic_string@_WU?$char_traits@_W@std@@V?$allocator@_W@2@@0@@Z PROC ; std::operator>><wchar_t,std::char_traits<wchar_t>,std::allocator<wchar_t> >, COMDAT
; File C:\Program Files (x86)\Microsoft Visual Studio\2019\Community\VC\Tools\MSVC\14.29.30133\include\xstring
; Line 4940
$LN3:
	mov	QWORD PTR [rsp+16], rdx
	mov	QWORD PTR [rsp+8], rcx
	push	rdi
	sub	rsp, 32					; 00000020H
; Line 4941
	mov	rcx, QWORD PTR _Istr$[rsp]
	call	??$move@AEAV?$basic_istream@_WU?$char_traits@_W@std@@@std@@@std@@YA$$QEAV?$basic_istream@_WU?$char_traits@_W@std@@@0@AEAV10@@Z ; std::move<std::basic_istream<wchar_t,std::char_traits<wchar_t> > &>
	mov	rdx, QWORD PTR _Str$[rsp]
	mov	rcx, rax
	call	??$?5_WU?$char_traits@_W@std@@V?$allocator@_W@1@@std@@YAAEAV?$basic_istream@_WU?$char_traits@_W@std@@@0@$$QEAV10@AEAV?$basic_string@_WU?$char_traits@_W@std@@V?$allocator@_W@2@@0@@Z ; std::operator>><wchar_t,std::char_traits<wchar_t>,std::allocator<wchar_t> >
; Line 4942
	add	rsp, 32					; 00000020H
	pop	rdi
	ret	0
??$?5_WU?$char_traits@_W@std@@V?$allocator@_W@1@@std@@YAAEAV?$basic_istream@_WU?$char_traits@_W@std@@@0@AEAV10@AEAV?$basic_string@_WU?$char_traits@_W@std@@V?$allocator@_W@2@@0@@Z ENDP ; std::operator>><wchar_t,std::char_traits<wchar_t>,std::allocator<wchar_t> >
_TEXT	ENDS
; Function compile flags: /Odtp /RTCsu
;	COMDAT ??$?5_WU?$char_traits@_W@std@@V?$allocator@_W@1@@std@@YAAEAV?$basic_istream@_WU?$char_traits@_W@std@@@0@$$QEAV10@AEAV?$basic_string@_WU?$char_traits@_W@std@@V?$allocator@_W@2@@0@@Z
_TEXT	SEGMENT
_State$ = 32
_Changed$ = 36
_Ok$ = 56
_Ctype_fac$5 = 88
_Size$6 = 96
_Meta$7 = 116
$T8 = 144
$T9 = 160
$T10 = 168
tv65 = 176
tv258 = 184
tv261 = 192
tv262 = 200
tv263 = 208
tv264 = 216
tv265 = 224
tv266 = 232
tv267 = 240
tv268 = 242
__$ArrayPad$ = 248
_Istr$ = 272
_Str$ = 280
??$?5_WU?$char_traits@_W@std@@V?$allocator@_W@1@@std@@YAAEAV?$basic_istream@_WU?$char_traits@_W@std@@@0@$$QEAV10@AEAV?$basic_string@_WU?$char_traits@_W@std@@V?$allocator@_W@2@@0@@Z PROC ; std::operator>><wchar_t,std::char_traits<wchar_t>,std::allocator<wchar_t> >, COMDAT
; File C:\Program Files (x86)\Microsoft Visual Studio\2019\Community\VC\Tools\MSVC\14.29.30133\include\xstring
; Line 4891
$LN22:
	mov	QWORD PTR [rsp+16], rdx
	mov	QWORD PTR [rsp+8], rcx
	push	rdi
	sub	rsp, 256				; 00000100H
	lea	rdi, QWORD PTR [rsp+32]
	mov	ecx, 56					; 00000038H
	mov	eax, -858993460				; ccccccccH
	rep stosd
	mov	rcx, QWORD PTR [rsp+272]
	mov	rax, QWORD PTR __security_cookie
	xor	rax, rsp
	mov	QWORD PTR __$ArrayPad$[rsp], rax
; Line 4897
	mov	DWORD PTR _State$[rsp], 0
; Line 4898
	mov	BYTE PTR _Changed$[rsp], 0
; Line 4899
	xor	r8d, r8d
	mov	rdx, QWORD PTR _Istr$[rsp]
	lea	rcx, QWORD PTR _Ok$[rsp]
	call	??0sentry@?$basic_istream@_WU?$char_traits@_W@std@@@std@@QEAA@AEAV12@_N@Z ; std::basic_istream<wchar_t,std::char_traits<wchar_t> >::sentry::sentry
	npad	1
; Line 4901
	lea	rcx, QWORD PTR _Ok$[rsp]
	call	??Bsentry@?$basic_istream@_WU?$char_traits@_W@std@@@std@@QEBA_NXZ ; std::basic_istream<wchar_t,std::char_traits<wchar_t> >::sentry::operator bool
	movzx	eax, al
	test	eax, eax
	je	$LN5@operator
; Line 4902
	mov	rax, QWORD PTR _Istr$[rsp]
	mov	rax, QWORD PTR [rax]
	movsxd	rax, DWORD PTR [rax+4]
	mov	rcx, QWORD PTR _Istr$[rsp]
	add	rcx, rax
	mov	rax, rcx
	lea	rdx, QWORD PTR $T8[rsp]
	mov	rcx, rax
	call	QWORD PTR __imp_?getloc@ios_base@std@@QEBA?AVlocale@2@XZ
	mov	QWORD PTR tv65[rsp], rax
	mov	rax, QWORD PTR tv65[rsp]
	mov	QWORD PTR tv258[rsp], rax
	mov	rcx, QWORD PTR tv258[rsp]
	call	??$use_facet@V?$ctype@_W@std@@@std@@YAAEBV?$ctype@_W@0@AEBVlocale@0@@Z ; std::use_facet<std::ctype<wchar_t> >
	mov	QWORD PTR _Ctype_fac$5[rsp], rax
	lea	rcx, QWORD PTR $T8[rsp]
	call	??1locale@std@@QEAA@XZ			; std::locale::~locale
; Line 4903
	xor	edx, edx
	mov	rcx, QWORD PTR _Str$[rsp]
	call	?erase@?$basic_string@_WU?$char_traits@_W@std@@V?$allocator@_W@2@@std@@QEAAAEAV12@_K@Z ; std::basic_string<wchar_t,std::char_traits<wchar_t>,std::allocator<wchar_t> >::erase
	npad	1
; Line 4907
	mov	rax, QWORD PTR _Istr$[rsp]
	mov	rax, QWORD PTR [rax]
	movsxd	rax, DWORD PTR [rax+4]
	mov	rcx, QWORD PTR _Istr$[rsp]
	add	rcx, rax
	mov	rax, rcx
	mov	rcx, rax
	call	QWORD PTR __imp_?width@ios_base@std@@QEBA_JXZ
	mov	QWORD PTR tv261[rsp], rax
	cmp	QWORD PTR tv261[rsp], 0
	jle	$LN7@operator
	mov	rax, QWORD PTR _Istr$[rsp]
	mov	rax, QWORD PTR [rax]
	movsxd	rax, DWORD PTR [rax+4]
	mov	rcx, QWORD PTR _Istr$[rsp]
	add	rcx, rax
	mov	rax, rcx
	mov	rcx, rax
	call	QWORD PTR __imp_?width@ios_base@std@@QEBA_JXZ
	mov	QWORD PTR tv262[rsp], rax
	mov	rcx, QWORD PTR _Str$[rsp]
	call	?max_size@?$basic_string@_WU?$char_traits@_W@std@@V?$allocator@_W@2@@std@@QEBA_KXZ ; std::basic_string<wchar_t,std::char_traits<wchar_t>,std::allocator<wchar_t> >::max_size
	cmp	QWORD PTR tv262[rsp], rax
	jae	SHORT $LN7@operator
; Line 4908
	mov	rax, QWORD PTR _Istr$[rsp]
	mov	rax, QWORD PTR [rax]
	movsxd	rax, DWORD PTR [rax+4]
	mov	rcx, QWORD PTR _Istr$[rsp]
	add	rcx, rax
	mov	rax, rcx
	mov	rcx, rax
	call	QWORD PTR __imp_?width@ios_base@std@@QEBA_JXZ
	mov	QWORD PTR tv263[rsp], rax
	mov	rax, QWORD PTR tv263[rsp]
	mov	QWORD PTR _Size$6[rsp], rax
; Line 4909
	jmp	SHORT $LN8@operator
$LN7@operator:
; Line 4910
	mov	rcx, QWORD PTR _Str$[rsp]
	call	?max_size@?$basic_string@_WU?$char_traits@_W@std@@V?$allocator@_W@2@@std@@QEBA_KXZ ; std::basic_string<wchar_t,std::char_traits<wchar_t>,std::allocator<wchar_t> >::max_size
	mov	QWORD PTR _Size$6[rsp], rax
$LN8@operator:
; Line 4913
	mov	rax, QWORD PTR _Istr$[rsp]
	mov	rax, QWORD PTR [rax]
	movsxd	rax, DWORD PTR [rax+4]
	mov	rcx, QWORD PTR _Istr$[rsp]
	add	rcx, rax
	mov	rax, rcx
	mov	rcx, rax
	call	QWORD PTR __imp_?rdbuf@?$basic_ios@_WU?$char_traits@_W@std@@@std@@QEBAPEAV?$basic_streambuf@_WU?$char_traits@_W@std@@@2@XZ
	mov	QWORD PTR tv264[rsp], rax
	mov	rcx, QWORD PTR tv264[rsp]
	call	QWORD PTR __imp_?sgetc@?$basic_streambuf@_WU?$char_traits@_W@std@@@std@@QEAAGXZ
	mov	WORD PTR tv265[rsp], ax
	movzx	eax, WORD PTR tv265[rsp]
	mov	WORD PTR _Meta$7[rsp], ax
; Line 4915
	jmp	SHORT $LN4@operator
$LN2@operator:
	mov	rax, QWORD PTR _Size$6[rsp]
	dec	rax
	mov	QWORD PTR _Size$6[rsp], rax
	mov	rax, QWORD PTR _Istr$[rsp]
	mov	rax, QWORD PTR [rax]
	movsxd	rax, DWORD PTR [rax+4]
	mov	rcx, QWORD PTR _Istr$[rsp]
	add	rcx, rax
	mov	rax, rcx
	mov	rcx, rax
	call	QWORD PTR __imp_?rdbuf@?$basic_ios@_WU?$char_traits@_W@std@@@std@@QEBAPEAV?$basic_streambuf@_WU?$char_traits@_W@std@@@2@XZ
	mov	QWORD PTR tv266[rsp], rax
	mov	rcx, QWORD PTR tv266[rsp]
	call	QWORD PTR __imp_?snextc@?$basic_streambuf@_WU?$char_traits@_W@std@@@std@@QEAAGXZ
	mov	WORD PTR tv267[rsp], ax
	movzx	eax, WORD PTR tv267[rsp]
	mov	WORD PTR _Meta$7[rsp], ax
$LN4@operator:
	cmp	QWORD PTR _Size$6[rsp], 0
	jbe	$LN3@operator
; Line 4916
	call	?eof@?$_WChar_traits@_W@std@@SAGXZ	; std::_WChar_traits<wchar_t>::eof
	mov	WORD PTR $T9[rsp], ax
	lea	rdx, QWORD PTR _Meta$7[rsp]
	lea	rcx, QWORD PTR $T9[rsp]
	call	?eq_int_type@?$_WChar_traits@_W@std@@SA_NAEBG0@Z ; std::_WChar_traits<wchar_t>::eq_int_type
	movzx	eax, al
	test	eax, eax
	je	SHORT $LN9@operator
; Line 4917
	mov	eax, DWORD PTR _State$[rsp]
	or	eax, 1
	mov	DWORD PTR _State$[rsp], eax
; Line 4918
	jmp	SHORT $LN3@operator
	jmp	SHORT $LN10@operator
$LN9@operator:
; Line 4919
	lea	rcx, QWORD PTR _Meta$7[rsp]
	call	?to_char_type@?$_WChar_traits@_W@std@@SA_WAEBG@Z ; std::_WChar_traits<wchar_t>::to_char_type
	movzx	r8d, ax
	mov	dx, 72					; 00000048H
	mov	rcx, QWORD PTR _Ctype_fac$5[rsp]
	call	QWORD PTR __imp_?is@?$ctype@_W@std@@QEBA_NF_W@Z
	mov	BYTE PTR tv268[rsp], al
	movzx	eax, BYTE PTR tv268[rsp]
	test	eax, eax
	je	SHORT $LN11@operator
; Line 4920
	jmp	SHORT $LN3@operator
; Line 4921
	jmp	SHORT $LN10@operator
$LN11@operator:
; Line 4922
	lea	rcx, QWORD PTR _Meta$7[rsp]
	call	?to_char_type@?$_WChar_traits@_W@std@@SA_WAEBG@Z ; std::_WChar_traits<wchar_t>::to_char_type
	movzx	edx, ax
	mov	rcx, QWORD PTR _Str$[rsp]
	call	?push_back@?$basic_string@_WU?$char_traits@_W@std@@V?$allocator@_W@2@@std@@QEAAX_W@Z ; std::basic_string<wchar_t,std::char_traits<wchar_t>,std::allocator<wchar_t> >::push_back
; Line 4923
	mov	BYTE PTR _Changed$[rsp], 1
$LN10@operator:
; Line 4925
	jmp	$LN2@operator
$LN3@operator:
	jmp	SHORT $LN5@operator
$LN20@operator:
$LN5@operator:
; Line 4929
	mov	rax, QWORD PTR _Istr$[rsp]
	mov	rax, QWORD PTR [rax]
	movsxd	rax, DWORD PTR [rax+4]
	mov	rcx, QWORD PTR _Istr$[rsp]
	add	rcx, rax
	mov	rax, rcx
	xor	edx, edx
	mov	rcx, rax
	call	QWORD PTR __imp_?width@ios_base@std@@QEAA_J_J@Z
; Line 4930
	movzx	eax, BYTE PTR _Changed$[rsp]
	test	eax, eax
	jne	SHORT $LN13@operator
; Line 4931
	mov	eax, DWORD PTR _State$[rsp]
	or	eax, 2
	mov	DWORD PTR _State$[rsp], eax
$LN13@operator:
; Line 4934
	mov	rax, QWORD PTR _Istr$[rsp]
	mov	rax, QWORD PTR [rax]
	movsxd	rax, DWORD PTR [rax+4]
	mov	rcx, QWORD PTR _Istr$[rsp]
	add	rcx, rax
	mov	rax, rcx
	xor	r8d, r8d
	mov	edx, DWORD PTR _State$[rsp]
	mov	rcx, rax
	call	QWORD PTR __imp_?setstate@?$basic_ios@_WU?$char_traits@_W@std@@@std@@QEAAXH_N@Z
; Line 4935
	mov	rax, QWORD PTR _Istr$[rsp]
	mov	QWORD PTR $T10[rsp], rax
	lea	rcx, QWORD PTR _Ok$[rsp]
	call	??1sentry@?$basic_istream@_WU?$char_traits@_W@std@@@std@@QEAA@XZ
	mov	rax, QWORD PTR $T10[rsp]
; Line 4936
	mov	rdi, rax
	mov	rcx, rsp
	lea	rdx, OFFSET FLAT:??$?5_WU?$char_traits@_W@std@@V?$allocator@_W@1@@std@@YAAEAV?$basic_istream@_WU?$char_traits@_W@std@@@0@$$QEAV10@AEAV?$basic_string@_WU?$char_traits@_W@std@@V?$allocator@_W@2@@0@@Z$rtcFrameData
	call	_RTC_CheckStackVars
	mov	rax, rdi
	mov	rcx, QWORD PTR __$ArrayPad$[rsp]
	xor	rcx, rsp
	call	__security_check_cookie
	add	rsp, 256				; 00000100H
	pop	rdi
	ret	0
??$?5_WU?$char_traits@_W@std@@V?$allocator@_W@1@@std@@YAAEAV?$basic_istream@_WU?$char_traits@_W@std@@@0@$$QEAV10@AEAV?$basic_string@_WU?$char_traits@_W@std@@V?$allocator@_W@2@@0@@Z ENDP ; std::operator>><wchar_t,std::char_traits<wchar_t>,std::allocator<wchar_t> >
_TEXT	ENDS
;	COMDAT text$x
text$x	SEGMENT
_State$ = 32
_Changed$ = 36
_Ok$ = 56
_Ctype_fac$5 = 88
_Size$6 = 96
_Meta$7 = 116
$T8 = 144
$T9 = 160
$T10 = 168
tv65 = 176
tv258 = 184
tv261 = 192
tv262 = 200
tv263 = 208
tv264 = 216
tv265 = 224
tv266 = 232
tv267 = 240
tv268 = 242
__$ArrayPad$ = 248
_Istr$ = 272
_Str$ = 280
?dtor$0@?0???$?5_WU?$char_traits@_W@std@@V?$allocator@_W@1@@std@@YAAEAV?$basic_istream@_WU?$char_traits@_W@std@@@0@$$QEAV10@AEAV?$basic_string@_WU?$char_traits@_W@std@@V?$allocator@_W@2@@0@@Z@4HA PROC ; `std::operator>><wchar_t,std::char_traits<wchar_t>,std::allocator<wchar_t> >'::`1'::dtor$0
	mov	QWORD PTR [rsp+8], rcx
	mov	QWORD PTR [rsp+16], rdx
	push	rbp
	push	rdi
	sub	rsp, 40					; 00000028H
	mov	rbp, rdx
	lea	rcx, QWORD PTR _Ok$[rbp]
	call	??1sentry@?$basic_istream@_WU?$char_traits@_W@std@@@std@@QEAA@XZ
	add	rsp, 40					; 00000028H
	pop	rdi
	pop	rbp
	ret	0
?dtor$0@?0???$?5_WU?$char_traits@_W@std@@V?$allocator@_W@1@@std@@YAAEAV?$basic_istream@_WU?$char_traits@_W@std@@@0@$$QEAV10@AEAV?$basic_string@_WU?$char_traits@_W@std@@V?$allocator@_W@2@@0@@Z@4HA ENDP ; `std::operator>><wchar_t,std::char_traits<wchar_t>,std::allocator<wchar_t> >'::`1'::dtor$0
text$x	ENDS
;	COMDAT text$x
text$x	SEGMENT
_State$ = 32
_Changed$ = 36
_Ok$ = 56
_Ctype_fac$5 = 88
_Size$6 = 96
_Meta$7 = 116
$T8 = 144
$T9 = 160
$T10 = 168
tv65 = 176
tv258 = 184
tv261 = 192
tv262 = 200
tv263 = 208
tv264 = 216
tv265 = 224
tv266 = 232
tv267 = 240
tv268 = 242
__$ArrayPad$ = 248
_Istr$ = 272
_Str$ = 280
?dtor$1@?0???$?5_WU?$char_traits@_W@std@@V?$allocator@_W@1@@std@@YAAEAV?$basic_istream@_WU?$char_traits@_W@std@@@0@$$QEAV10@AEAV?$basic_string@_WU?$char_traits@_W@std@@V?$allocator@_W@2@@0@@Z@4HA PROC ; `std::operator>><wchar_t,std::char_traits<wchar_t>,std::allocator<wchar_t> >'::`1'::dtor$1
	mov	QWORD PTR [rsp+8], rcx
	mov	QWORD PTR [rsp+16], rdx
	push	rbp
	push	rdi
	sub	rsp, 40					; 00000028H
	mov	rbp, rdx
	lea	rcx, QWORD PTR $T8[rbp]
	call	??1locale@std@@QEAA@XZ			; std::locale::~locale
	add	rsp, 40					; 00000028H
	pop	rdi
	pop	rbp
	ret	0
?dtor$1@?0???$?5_WU?$char_traits@_W@std@@V?$allocator@_W@1@@std@@YAAEAV?$basic_istream@_WU?$char_traits@_W@std@@@0@$$QEAV10@AEAV?$basic_string@_WU?$char_traits@_W@std@@V?$allocator@_W@2@@0@@Z@4HA ENDP ; `std::operator>><wchar_t,std::char_traits<wchar_t>,std::allocator<wchar_t> >'::`1'::dtor$1
text$x	ENDS
;	COMDAT text$x
text$x	SEGMENT
_State$ = 32
_Changed$ = 36
_Ok$ = 56
_Ctype_fac$5 = 88
_Size$6 = 96
_Meta$7 = 116
$T8 = 144
$T9 = 160
$T10 = 168
tv65 = 176
tv258 = 184
tv261 = 192
tv262 = 200
tv263 = 208
tv264 = 216
tv265 = 224
tv266 = 232
tv267 = 240
tv268 = 242
__$ArrayPad$ = 248
_Istr$ = 272
_Str$ = 280
?catch$2@?0???$?5_WU?$char_traits@_W@std@@V?$allocator@_W@1@@std@@YAAEAV?$basic_istream@_WU?$char_traits@_W@std@@@0@$$QEAV10@AEAV?$basic_string@_WU?$char_traits@_W@std@@V?$allocator@_W@2@@0@@Z@4HA PROC ; `std::operator>><wchar_t,std::char_traits<wchar_t>,std::allocator<wchar_t> >'::`1'::catch$2
; Line 4926
	mov	QWORD PTR [rsp+8], rcx
	mov	QWORD PTR [rsp+16], rdx
	push	rbp
	push	rdi
	sub	rsp, 40					; 00000028H
	mov	rbp, rdx
__catch$??$?5_WU?$char_traits@_W@std@@V?$allocator@_W@1@@std@@YAAEAV?$basic_istream@_WU?$char_traits@_W@std@@@0@$$QEAV10@AEAV?$basic_string@_WU?$char_traits@_W@std@@V?$allocator@_W@2@@0@@Z$0:
	mov	rax, QWORD PTR _Istr$[rbp]
	mov	rax, QWORD PTR [rax]
	movsxd	rax, DWORD PTR [rax+4]
	mov	rcx, QWORD PTR _Istr$[rbp]
	add	rcx, rax
	mov	rax, rcx
	mov	r8b, 1
	mov	edx, 4
	mov	rcx, rax
	call	QWORD PTR __imp_?setstate@?$basic_ios@_WU?$char_traits@_W@std@@@std@@QEAAXH_N@Z
	npad	1
	lea	rax, $LN20@catch$2
	add	rsp, 40					; 00000028H
	pop	rdi
	pop	rbp
	ret	0
	int	3
?catch$2@?0???$?5_WU?$char_traits@_W@std@@V?$allocator@_W@1@@std@@YAAEAV?$basic_istream@_WU?$char_traits@_W@std@@@0@$$QEAV10@AEAV?$basic_string@_WU?$char_traits@_W@std@@V?$allocator@_W@2@@0@@Z@4HA ENDP ; `std::operator>><wchar_t,std::char_traits<wchar_t>,std::allocator<wchar_t> >'::`1'::catch$2
text$x	ENDS
; Function compile flags: /Odtp /RTCsu
;	COMDAT text$x
text$x	SEGMENT
_State$ = 32
_Changed$ = 36
_Ok$ = 56
_Ctype_fac$5 = 88
_Size$6 = 96
_Meta$7 = 116
$T8 = 144
$T9 = 160
$T10 = 168
tv65 = 176
tv258 = 184
tv261 = 192
tv262 = 200
tv263 = 208
tv264 = 216
tv265 = 224
tv266 = 232
tv267 = 240
tv268 = 242
__$ArrayPad$ = 248
_Istr$ = 272
_Str$ = 280
?dtor$0@?0???$?5_WU?$char_traits@_W@std@@V?$allocator@_W@1@@std@@YAAEAV?$basic_istream@_WU?$char_traits@_W@std@@@0@$$QEAV10@AEAV?$basic_string@_WU?$char_traits@_W@std@@V?$allocator@_W@2@@0@@Z@4HA PROC ; `std::operator>><wchar_t,std::char_traits<wchar_t>,std::allocator<wchar_t> >'::`1'::dtor$0
	mov	QWORD PTR [rsp+8], rcx
	mov	QWORD PTR [rsp+16], rdx
	push	rbp
	push	rdi
	sub	rsp, 40					; 00000028H
	mov	rbp, rdx
	lea	rcx, QWORD PTR _Ok$[rbp]
	call	??1sentry@?$basic_istream@_WU?$char_traits@_W@std@@@std@@QEAA@XZ
	add	rsp, 40					; 00000028H
	pop	rdi
	pop	rbp
	ret	0
?dtor$0@?0???$?5_WU?$char_traits@_W@std@@V?$allocator@_W@1@@std@@YAAEAV?$basic_istream@_WU?$char_traits@_W@std@@@0@$$QEAV10@AEAV?$basic_string@_WU?$char_traits@_W@std@@V?$allocator@_W@2@@0@@Z@4HA ENDP ; `std::operator>><wchar_t,std::char_traits<wchar_t>,std::allocator<wchar_t> >'::`1'::dtor$0
text$x	ENDS
; Function compile flags: /Odtp /RTCsu
;	COMDAT text$x
text$x	SEGMENT
_State$ = 32
_Changed$ = 36
_Ok$ = 56
_Ctype_fac$5 = 88
_Size$6 = 96
_Meta$7 = 116
$T8 = 144
$T9 = 160
$T10 = 168
tv65 = 176
tv258 = 184
tv261 = 192
tv262 = 200
tv263 = 208
tv264 = 216
tv265 = 224
tv266 = 232
tv267 = 240
tv268 = 242
__$ArrayPad$ = 248
_Istr$ = 272
_Str$ = 280
?dtor$1@?0???$?5_WU?$char_traits@_W@std@@V?$allocator@_W@1@@std@@YAAEAV?$basic_istream@_WU?$char_traits@_W@std@@@0@$$QEAV10@AEAV?$basic_string@_WU?$char_traits@_W@std@@V?$allocator@_W@2@@0@@Z@4HA PROC ; `std::operator>><wchar_t,std::char_traits<wchar_t>,std::allocator<wchar_t> >'::`1'::dtor$1
	mov	QWORD PTR [rsp+8], rcx
	mov	QWORD PTR [rsp+16], rdx
	push	rbp
	push	rdi
	sub	rsp, 40					; 00000028H
	mov	rbp, rdx
	lea	rcx, QWORD PTR $T8[rbp]
	call	??1locale@std@@QEAA@XZ			; std::locale::~locale
	add	rsp, 40					; 00000028H
	pop	rdi
	pop	rbp
	ret	0
?dtor$1@?0???$?5_WU?$char_traits@_W@std@@V?$allocator@_W@1@@std@@YAAEAV?$basic_istream@_WU?$char_traits@_W@std@@@0@$$QEAV10@AEAV?$basic_string@_WU?$char_traits@_W@std@@V?$allocator@_W@2@@0@@Z@4HA ENDP ; `std::operator>><wchar_t,std::char_traits<wchar_t>,std::allocator<wchar_t> >'::`1'::dtor$1
text$x	ENDS
; Function compile flags: /Odtp /RTCsu
;	COMDAT text$x
text$x	SEGMENT
_State$ = 32
_Changed$ = 36
_Ok$ = 56
_Ctype_fac$5 = 88
_Size$6 = 96
_Meta$7 = 116
$T8 = 144
$T9 = 160
$T10 = 168
tv65 = 176
tv258 = 184
tv261 = 192
tv262 = 200
tv263 = 208
tv264 = 216
tv265 = 224
tv266 = 232
tv267 = 240
tv268 = 242
__$ArrayPad$ = 248
_Istr$ = 272
_Str$ = 280
?catch$2@?0???$?5_WU?$char_traits@_W@std@@V?$allocator@_W@1@@std@@YAAEAV?$basic_istream@_WU?$char_traits@_W@std@@@0@$$QEAV10@AEAV?$basic_string@_WU?$char_traits@_W@std@@V?$allocator@_W@2@@0@@Z@4HA PROC ; `std::operator>><wchar_t,std::char_traits<wchar_t>,std::allocator<wchar_t> >'::`1'::catch$2
; Line 4926
	mov	QWORD PTR [rsp+8], rcx
	mov	QWORD PTR [rsp+16], rdx
	push	rbp
	push	rdi
	sub	rsp, 40					; 00000028H
	mov	rbp, rdx
__catch$??$?5_WU?$char_traits@_W@std@@V?$allocator@_W@1@@std@@YAAEAV?$basic_istream@_WU?$char_traits@_W@std@@@0@$$QEAV10@AEAV?$basic_string@_WU?$char_traits@_W@std@@V?$allocator@_W@2@@0@@Z$0:
	mov	rax, QWORD PTR _Istr$[rbp]
	mov	rax, QWORD PTR [rax]
	movsxd	rax, DWORD PTR [rax+4]
	mov	rcx, QWORD PTR _Istr$[rbp]
	add	rcx, rax
	mov	rax, rcx
	mov	r8b, 1
	mov	edx, 4
	mov	rcx, rax
	call	QWORD PTR __imp_?setstate@?$basic_ios@_WU?$char_traits@_W@std@@@std@@QEAAXH_N@Z
	npad	1
	lea	rax, $LN20@catch$2
	add	rsp, 40					; 00000028H
	pop	rdi
	pop	rbp
	ret	0
	int	3
?catch$2@?0???$?5_WU?$char_traits@_W@std@@V?$allocator@_W@1@@std@@YAAEAV?$basic_istream@_WU?$char_traits@_W@std@@@0@$$QEAV10@AEAV?$basic_string@_WU?$char_traits@_W@std@@V?$allocator@_W@2@@0@@Z@4HA ENDP ; `std::operator>><wchar_t,std::char_traits<wchar_t>,std::allocator<wchar_t> >'::`1'::catch$2
text$x	ENDS
; Function compile flags: /Odtp /RTCsu
_TEXT	SEGMENT
mod$ = 40
f_read$ = 72
f_write$ = 80
s$ = 104
$T5 = 160
$T6 = 176
__$ArrayPad$ = 192
main	PROC
; File C:\Users\Дмитрий\github_repo\s0172090_computers_net\Задание 1\Server_Application\ClientBinaryFile\ClientBinaryFile.cpp
; Line 64
$LN8:
	push	rsi
	push	rdi
	sub	rsp, 216				; 000000d8H
	lea	rdi, QWORD PTR [rsp+32]
	mov	ecx, 46					; 0000002eH
	mov	eax, -858993460				; ccccccccH
	rep stosd
	mov	rax, QWORD PTR __security_cookie
	xor	rax, rsp
	mov	QWORD PTR __$ArrayPad$[rsp], rax
; Line 65
	call	?SetLocale@@YAXXZ			; SetLocale
; Line 68
	mov	r8d, 64					; 00000040H
	lea	rdx, OFFSET FLAT:$SG45355
	mov	rcx, QWORD PTR ?path_client@@3PEBDEB	; path_client
	call	QWORD PTR __imp__fsopen
	mov	QWORD PTR f_read$[rsp], rax
; Line 69
	mov	r8d, 64					; 00000040H
	lea	rdx, OFFSET FLAT:$SG45356
	mov	rcx, QWORD PTR ?path_serv@@3PEBDEB	; path_serv
	call	QWORD PTR __imp__fsopen
	mov	QWORD PTR f_write$[rsp], rax
; Line 70
	lea	rcx, QWORD PTR s$[rsp]
	call	??0?$basic_string@_WU?$char_traits@_W@std@@V?$allocator@_W@2@@std@@QEAA@XZ ; std::basic_string<wchar_t,std::char_traits<wchar_t>,std::allocator<wchar_t> >::basic_string<wchar_t,std::char_traits<wchar_t>,std::allocator<wchar_t> >
	npad	1
$LN2@main:
; Line 71
	xor	eax, eax
	cmp	eax, 1
	je	$LN3@main
; Line 72
	lea	rdx, OFFSET FLAT:$SG45357
	mov	rcx, QWORD PTR __imp_?wcout@std@@3V?$basic_ostream@_WU?$char_traits@_W@std@@@1@A
	call	??$?6_WU?$char_traits@_W@std@@@std@@YAAEAV?$basic_ostream@_WU?$char_traits@_W@std@@@0@AEAV10@PEB_W@Z ; std::operator<<<wchar_t,std::char_traits<wchar_t> >
	lea	rdx, OFFSET FLAT:??$endl@_WU?$char_traits@_W@std@@@std@@YAAEAV?$basic_ostream@_WU?$char_traits@_W@std@@@0@AEAV10@@Z ; std::endl<wchar_t,std::char_traits<wchar_t> >
	mov	rcx, rax
	call	QWORD PTR __imp_??6?$basic_ostream@_WU?$char_traits@_W@std@@@std@@QEAAAEAV01@P6AAEAV01@AEAV01@@Z@Z
; Line 73
	lea	rdx, QWORD PTR s$[rsp]
	mov	rcx, QWORD PTR __imp_?wcin@std@@3V?$basic_istream@_WU?$char_traits@_W@std@@@1@A
	call	??$?5_WU?$char_traits@_W@std@@V?$allocator@_W@1@@std@@YAAEAV?$basic_istream@_WU?$char_traits@_W@std@@@0@AEAV10@AEAV?$basic_string@_WU?$char_traits@_W@std@@V?$allocator@_W@2@@0@@Z ; std::operator>><wchar_t,std::char_traits<wchar_t>,std::allocator<wchar_t> >
; Line 74
	lea	rdx, OFFSET FLAT:$SG45360
	lea	rcx, QWORD PTR s$[rsp]
	call	??$?8_WU?$char_traits@_W@std@@V?$allocator@_W@1@@std@@YA_NAEBV?$basic_string@_WU?$char_traits@_W@std@@V?$allocator@_W@2@@0@QEB_W@Z ; std::operator==<wchar_t,std::char_traits<wchar_t>,std::allocator<wchar_t> >
	movzx	eax, al
	test	eax, eax
	je	SHORT $LN4@main
; Line 75
	mov	DWORD PTR mod$[rsp+12], -23
; Line 76
	xorps	xmm0, xmm0
	movsd	QWORD PTR mod$[rsp], xmm0
; Line 77
	mov	DWORD PTR mod$[rsp+8], 0
; Line 78
	lea	rax, QWORD PTR $T5[rsp]
	lea	rcx, QWORD PTR mod$[rsp]
	mov	rdi, rax
	mov	rsi, rcx
	mov	ecx, 16
	rep movsb
	lea	rdx, QWORD PTR $T5[rsp]
	mov	rcx, QWORD PTR f_write$[rsp]
	call	?WriteModel@@YAXPEAU_iobuf@@UModel@@@Z	; WriteModel
; Line 79
	jmp	$LN3@main
; Line 80
	jmp	$LN5@main
$LN4@main:
; Line 82
	lea	rdx, OFFSET FLAT:$SG45361
	mov	rcx, QWORD PTR __imp_?wcout@std@@3V?$basic_ostream@_WU?$char_traits@_W@std@@@1@A
	call	??$?6_WU?$char_traits@_W@std@@@std@@YAAEAV?$basic_ostream@_WU?$char_traits@_W@std@@@0@AEAV10@PEB_W@Z ; std::operator<<<wchar_t,std::char_traits<wchar_t> >
	lea	rdx, OFFSET FLAT:??$endl@_WU?$char_traits@_W@std@@@std@@YAAEAV?$basic_ostream@_WU?$char_traits@_W@std@@@0@AEAV10@@Z ; std::endl<wchar_t,std::char_traits<wchar_t> >
	mov	rcx, rax
	call	QWORD PTR __imp_??6?$basic_ostream@_WU?$char_traits@_W@std@@@std@@QEAAAEAV01@P6AAEAV01@AEAV01@@Z@Z
; Line 83
	lea	rdx, QWORD PTR mod$[rsp+8]
	mov	rcx, QWORD PTR __imp_?wcin@std@@3V?$basic_istream@_WU?$char_traits@_W@std@@@1@A
	call	QWORD PTR __imp_??5?$basic_istream@_WU?$char_traits@_W@std@@@std@@QEAAAEAV01@AEAH@Z
; Line 84
	lea	rdx, OFFSET FLAT:$SG45362
	mov	rcx, QWORD PTR __imp_?wcout@std@@3V?$basic_ostream@_WU?$char_traits@_W@std@@@1@A
	call	??$?6_WU?$char_traits@_W@std@@@std@@YAAEAV?$basic_ostream@_WU?$char_traits@_W@std@@@0@AEAV10@PEB_W@Z ; std::operator<<<wchar_t,std::char_traits<wchar_t> >
	lea	rdx, OFFSET FLAT:??$endl@_WU?$char_traits@_W@std@@@std@@YAAEAV?$basic_ostream@_WU?$char_traits@_W@std@@@0@AEAV10@@Z ; std::endl<wchar_t,std::char_traits<wchar_t> >
	mov	rcx, rax
	call	QWORD PTR __imp_??6?$basic_ostream@_WU?$char_traits@_W@std@@@std@@QEAAAEAV01@P6AAEAV01@AEAV01@@Z@Z
; Line 85
	lea	rdx, QWORD PTR mod$[rsp]
	mov	rcx, QWORD PTR __imp_?wcin@std@@3V?$basic_istream@_WU?$char_traits@_W@std@@@1@A
	call	QWORD PTR __imp_??5?$basic_istream@_WU?$char_traits@_W@std@@@std@@QEAAAEAV01@AEAN@Z
; Line 86
	lea	rdx, OFFSET FLAT:$SG45363
	mov	rcx, QWORD PTR __imp_?wcout@std@@3V?$basic_ostream@_WU?$char_traits@_W@std@@@1@A
	call	??$?6_WU?$char_traits@_W@std@@@std@@YAAEAV?$basic_ostream@_WU?$char_traits@_W@std@@@0@AEAV10@PEB_W@Z ; std::operator<<<wchar_t,std::char_traits<wchar_t> >
	lea	rdx, OFFSET FLAT:??$endl@_WU?$char_traits@_W@std@@@std@@YAAEAV?$basic_ostream@_WU?$char_traits@_W@std@@@0@AEAV10@@Z ; std::endl<wchar_t,std::char_traits<wchar_t> >
	mov	rcx, rax
	call	QWORD PTR __imp_??6?$basic_ostream@_WU?$char_traits@_W@std@@@std@@QEAAAEAV01@P6AAEAV01@AEAV01@@Z@Z
; Line 87
	lea	rdx, QWORD PTR mod$[rsp+12]
	mov	rcx, QWORD PTR __imp_?wcin@std@@3V?$basic_istream@_WU?$char_traits@_W@std@@@1@A
	call	QWORD PTR __imp_??5?$basic_istream@_WU?$char_traits@_W@std@@@std@@QEAAAEAV01@AEAH@Z
; Line 88
	lea	rax, QWORD PTR $T6[rsp]
	lea	rcx, QWORD PTR mod$[rsp]
	mov	rdi, rax
	mov	rsi, rcx
	mov	ecx, 16
	rep movsb
	lea	rdx, QWORD PTR $T6[rsp]
	mov	rcx, QWORD PTR f_write$[rsp]
	call	?WriteModel@@YAXPEAU_iobuf@@UModel@@@Z	; WriteModel
; Line 89
	mov	rcx, QWORD PTR f_read$[rsp]
	call	?ReadResult@@YAXPEAU_iobuf@@@Z		; ReadResult
$LN5@main:
; Line 91
	jmp	$LN2@main
$LN3@main:
; Line 92
	mov	rcx, QWORD PTR f_read$[rsp]
	call	QWORD PTR __imp_fclose
; Line 93
	mov	rcx, QWORD PTR f_write$[rsp]
	call	QWORD PTR __imp_fclose
	npad	1
; Line 94
	lea	rcx, QWORD PTR s$[rsp]
	call	??1?$basic_string@_WU?$char_traits@_W@std@@V?$allocator@_W@2@@std@@QEAA@XZ ; std::basic_string<wchar_t,std::char_traits<wchar_t>,std::allocator<wchar_t> >::~basic_string<wchar_t,std::char_traits<wchar_t>,std::allocator<wchar_t> >
	xor	eax, eax
	mov	edi, eax
	mov	rcx, rsp
	lea	rdx, OFFSET FLAT:main$rtcFrameData
	call	_RTC_CheckStackVars
	mov	eax, edi
	mov	rcx, QWORD PTR __$ArrayPad$[rsp]
	xor	rcx, rsp
	call	__security_check_cookie
	add	rsp, 216				; 000000d8H
	pop	rdi
	pop	rsi
	ret	0
main	ENDP
_TEXT	ENDS
text$x	SEGMENT
mod$ = 40
f_read$ = 72
f_write$ = 80
s$ = 104
$T5 = 160
$T6 = 176
__$ArrayPad$ = 192
main$dtor$0 PROC
	mov	QWORD PTR [rsp+8], rcx
	mov	QWORD PTR [rsp+16], rdx
	push	rbp
	push	rdi
	sub	rsp, 40					; 00000028H
	mov	rbp, rdx
	lea	rcx, QWORD PTR s$[rbp]
	call	??1?$basic_string@_WU?$char_traits@_W@std@@V?$allocator@_W@2@@std@@QEAA@XZ ; std::basic_string<wchar_t,std::char_traits<wchar_t>,std::allocator<wchar_t> >::~basic_string<wchar_t,std::char_traits<wchar_t>,std::allocator<wchar_t> >
	add	rsp, 40					; 00000028H
	pop	rdi
	pop	rbp
	ret	0
main$dtor$0 ENDP
text$x	ENDS
; Function compile flags: /Odtp /RTCsu
text$x	SEGMENT
mod$ = 40
f_read$ = 72
f_write$ = 80
s$ = 104
$T5 = 160
$T6 = 176
__$ArrayPad$ = 192
main$dtor$0 PROC
	mov	QWORD PTR [rsp+8], rcx
	mov	QWORD PTR [rsp+16], rdx
	push	rbp
	push	rdi
	sub	rsp, 40					; 00000028H
	mov	rbp, rdx
	lea	rcx, QWORD PTR s$[rbp]
	call	??1?$basic_string@_WU?$char_traits@_W@std@@V?$allocator@_W@2@@std@@QEAA@XZ ; std::basic_string<wchar_t,std::char_traits<wchar_t>,std::allocator<wchar_t> >::~basic_string<wchar_t,std::char_traits<wchar_t>,std::allocator<wchar_t> >
	add	rsp, 40					; 00000028H
	pop	rdi
	pop	rbp
	ret	0
main$dtor$0 ENDP
text$x	ENDS
; Function compile flags: /Odtp /RTCsu
_TEXT	SEGMENT
?SetLocale@@YAXXZ PROC					; SetLocale
; File C:\Users\Дмитрий\github_repo\s0172090_computers_net\Задание 1\Server_Application\ClientBinaryFile\ClientBinaryFile.cpp
; Line 58
$LN3:
	push	rdi
	sub	rsp, 32					; 00000020H
; Line 59
	mov	ecx, 1
	call	QWORD PTR __imp___acrt_iob_func
	mov	rcx, rax
	call	QWORD PTR __imp__fileno
	mov	edx, 131072				; 00020000H
	mov	ecx, eax
	call	QWORD PTR __imp__setmode
; Line 60
	xor	ecx, ecx
	call	QWORD PTR __imp___acrt_iob_func
	mov	rcx, rax
	call	QWORD PTR __imp__fileno
	mov	edx, 131072				; 00020000H
	mov	ecx, eax
	call	QWORD PTR __imp__setmode
; Line 61
	mov	ecx, 2
	call	QWORD PTR __imp___acrt_iob_func
	mov	rcx, rax
	call	QWORD PTR __imp__fileno
	mov	edx, 131072				; 00020000H
	mov	ecx, eax
	call	QWORD PTR __imp__setmode
; Line 62
	add	rsp, 32					; 00000020H
	pop	rdi
	ret	0
?SetLocale@@YAXXZ ENDP					; SetLocale
_TEXT	ENDS
; Function compile flags: /Odtp /RTCsu
;	COMDAT ??$endl@_WU?$char_traits@_W@std@@@std@@YAAEAV?$basic_ostream@_WU?$char_traits@_W@std@@@0@AEAV10@@Z
_TEXT	SEGMENT
_Ostr$ = 48
??$endl@_WU?$char_traits@_W@std@@@std@@YAAEAV?$basic_ostream@_WU?$char_traits@_W@std@@@0@AEAV10@@Z PROC ; std::endl<wchar_t,std::char_traits<wchar_t> >, COMDAT
; File C:\Program Files (x86)\Microsoft Visual Studio\2019\Community\VC\Tools\MSVC\14.29.30133\include\ostream
; Line 974
$LN3:
	mov	QWORD PTR [rsp+8], rcx
	push	rdi
	sub	rsp, 32					; 00000020H
; Line 975
	mov	rax, QWORD PTR _Ostr$[rsp]
	mov	rax, QWORD PTR [rax]
	movsxd	rax, DWORD PTR [rax+4]
	mov	rcx, QWORD PTR _Ostr$[rsp]
	add	rcx, rax
	mov	rax, rcx
	mov	dl, 10
	mov	rcx, rax
	call	QWORD PTR __imp_?widen@?$basic_ios@_WU?$char_traits@_W@std@@@std@@QEBA_WD@Z
	movzx	edx, ax
	mov	rcx, QWORD PTR _Ostr$[rsp]
	call	QWORD PTR __imp_?put@?$basic_ostream@_WU?$char_traits@_W@std@@@std@@QEAAAEAV12@_W@Z
; Line 976
	mov	rcx, QWORD PTR _Ostr$[rsp]
	call	QWORD PTR __imp_?flush@?$basic_ostream@_WU?$char_traits@_W@std@@@std@@QEAAAEAV12@XZ
; Line 977
	mov	rax, QWORD PTR _Ostr$[rsp]
; Line 978
	add	rsp, 32					; 00000020H
	pop	rdi
	ret	0
??$endl@_WU?$char_traits@_W@std@@@std@@YAAEAV?$basic_ostream@_WU?$char_traits@_W@std@@@0@AEAV10@@Z ENDP ; std::endl<wchar_t,std::char_traits<wchar_t> >
_TEXT	ENDS
; Function compile flags: /Odtp /RTCsu
;	COMDAT ??$?6_WU?$char_traits@_W@std@@@std@@YAAEAV?$basic_ostream@_WU?$char_traits@_W@std@@@0@AEAV10@PEB_W@Z
_TEXT	SEGMENT
_State$ = 32
_Count$ = 40
_Pad$ = 48
_Ok$ = 72
$T4 = 112
$T5 = 114
$T6 = 116
$T7 = 118
$T8 = 120
tv137 = 128
tv139 = 136
tv294 = 140
tv295 = 144
tv296 = 152
tv297 = 160
tv298 = 168
tv299 = 176
tv300 = 184
tv301 = 192
__$ArrayPad$ = 200
_Ostr$ = 224
_Val$ = 232
??$?6_WU?$char_traits@_W@std@@@std@@YAAEAV?$basic_ostream@_WU?$char_traits@_W@std@@@0@AEAV10@PEB_W@Z PROC ; std::operator<<<wchar_t,std::char_traits<wchar_t> >, COMDAT
; File C:\Program Files (x86)\Microsoft Visual Studio\2019\Community\VC\Tools\MSVC\14.29.30133\include\ostream
; Line 813
$LN25:
	mov	QWORD PTR [rsp+16], rdx
	mov	QWORD PTR [rsp+8], rcx
	push	rdi
	sub	rsp, 208				; 000000d0H
	lea	rdi, QWORD PTR [rsp+32]
	mov	ecx, 44					; 0000002cH
	mov	eax, -858993460				; ccccccccH
	rep stosd
	mov	rcx, QWORD PTR [rsp+224]
	mov	rax, QWORD PTR __security_cookie
	xor	rax, rsp
	mov	QWORD PTR __$ArrayPad$[rsp], rax
; Line 816
	mov	DWORD PTR _State$[rsp], 0
; Line 817
	mov	rcx, QWORD PTR _Val$[rsp]
	call	?length@?$_WChar_traits@_W@std@@SA_KPEB_W@Z ; std::_WChar_traits<wchar_t>::length
	mov	QWORD PTR _Count$[rsp], rax
; Line 818
	mov	rax, QWORD PTR _Ostr$[rsp]
	mov	rax, QWORD PTR [rax]
	movsxd	rax, DWORD PTR [rax+4]
	mov	rcx, QWORD PTR _Ostr$[rsp]
	add	rcx, rax
	mov	rax, rcx
	mov	rcx, rax
	call	QWORD PTR __imp_?width@ios_base@std@@QEBA_JXZ
	test	rax, rax
	jle	SHORT $LN17@operator
	mov	rax, QWORD PTR _Ostr$[rsp]
	mov	rax, QWORD PTR [rax]
	movsxd	rax, DWORD PTR [rax+4]
	mov	rcx, QWORD PTR _Ostr$[rsp]
	add	rcx, rax
	mov	rax, rcx
	mov	rcx, rax
	call	QWORD PTR __imp_?width@ios_base@std@@QEBA_JXZ
	cmp	rax, QWORD PTR _Count$[rsp]
	jle	SHORT $LN17@operator
	mov	rax, QWORD PTR _Ostr$[rsp]
	mov	rax, QWORD PTR [rax]
	movsxd	rax, DWORD PTR [rax+4]
	mov	rcx, QWORD PTR _Ostr$[rsp]
	add	rcx, rax
	mov	rax, rcx
	mov	rcx, rax
	call	QWORD PTR __imp_?width@ios_base@std@@QEBA_JXZ
	sub	rax, QWORD PTR _Count$[rsp]
	mov	QWORD PTR tv137[rsp], rax
	jmp	SHORT $LN18@operator
$LN17@operator:
	mov	QWORD PTR tv137[rsp], 0
$LN18@operator:
	mov	rax, QWORD PTR tv137[rsp]
	mov	QWORD PTR _Pad$[rsp], rax
; Line 819
	mov	rdx, QWORD PTR _Ostr$[rsp]
	lea	rcx, QWORD PTR _Ok$[rsp]
	call	??0sentry@?$basic_ostream@_WU?$char_traits@_W@std@@@std@@QEAA@AEAV12@@Z ; std::basic_ostream<wchar_t,std::char_traits<wchar_t> >::sentry::sentry
	npad	1
; Line 821
	lea	rcx, QWORD PTR _Ok$[rsp]
	call	??Bsentry@?$basic_ostream@_WU?$char_traits@_W@std@@@std@@QEBA_NXZ ; std::basic_ostream<wchar_t,std::char_traits<wchar_t> >::sentry::operator bool
	movzx	eax, al
	test	eax, eax
	jne	SHORT $LN8@operator
; Line 822
	mov	eax, DWORD PTR _State$[rsp]
	or	eax, 4
	mov	DWORD PTR _State$[rsp], eax
; Line 823
	jmp	$LN9@operator
$LN8@operator:
; Line 825
	mov	rax, QWORD PTR _Ostr$[rsp]
	mov	rax, QWORD PTR [rax]
	movsxd	rax, DWORD PTR [rax+4]
	mov	rcx, QWORD PTR _Ostr$[rsp]
	add	rcx, rax
	mov	rax, rcx
	mov	rcx, rax
	call	QWORD PTR __imp_?flags@ios_base@std@@QEBAHXZ
	mov	DWORD PTR tv139[rsp], eax
	mov	eax, DWORD PTR tv139[rsp]
	and	eax, 448				; 000001c0H
	cmp	eax, 64					; 00000040H
	je	$LN11@operator
; Line 826
	jmp	SHORT $LN4@operator
$LN2@operator:
	mov	rax, QWORD PTR _Pad$[rsp]
	dec	rax
	mov	QWORD PTR _Pad$[rsp], rax
$LN4@operator:
	cmp	QWORD PTR _Pad$[rsp], 0
	jle	$LN11@operator
; Line 827
	mov	rax, QWORD PTR _Ostr$[rsp]
	mov	rax, QWORD PTR [rax]
	movsxd	rax, DWORD PTR [rax+4]
	mov	rcx, QWORD PTR _Ostr$[rsp]
	add	rcx, rax
	mov	rax, rcx
	mov	rcx, rax
	call	QWORD PTR __imp_?fill@?$basic_ios@_WU?$char_traits@_W@std@@@std@@QEBA_WXZ
	mov	WORD PTR tv294[rsp], ax
	mov	rax, QWORD PTR _Ostr$[rsp]
	mov	rax, QWORD PTR [rax]
	movsxd	rax, DWORD PTR [rax+4]
	mov	rcx, QWORD PTR _Ostr$[rsp]
	add	rcx, rax
	mov	rax, rcx
	mov	rcx, rax
	call	QWORD PTR __imp_?rdbuf@?$basic_ios@_WU?$char_traits@_W@std@@@std@@QEBAPEAV?$basic_streambuf@_WU?$char_traits@_W@std@@@2@XZ
	mov	QWORD PTR tv295[rsp], rax
	movzx	edx, WORD PTR tv294[rsp]
	mov	rcx, QWORD PTR tv295[rsp]
	call	QWORD PTR __imp_?sputc@?$basic_streambuf@_WU?$char_traits@_W@std@@@std@@QEAAG_W@Z
	mov	WORD PTR tv296[rsp], ax
	movzx	eax, WORD PTR tv296[rsp]
	mov	WORD PTR $T4[rsp], ax
	call	?eof@?$_WChar_traits@_W@std@@SAGXZ	; std::_WChar_traits<wchar_t>::eof
	mov	WORD PTR $T5[rsp], ax
	lea	rdx, QWORD PTR $T4[rsp]
	lea	rcx, QWORD PTR $T5[rsp]
	call	?eq_int_type@?$_WChar_traits@_W@std@@SA_NAEBG0@Z ; std::_WChar_traits<wchar_t>::eq_int_type
	movzx	eax, al
	test	eax, eax
	je	SHORT $LN12@operator
; Line 828
	mov	eax, DWORD PTR _State$[rsp]
	or	eax, 4
	mov	DWORD PTR _State$[rsp], eax
; Line 829
	jmp	SHORT $LN11@operator
$LN12@operator:
; Line 831
	jmp	$LN2@operator
$LN11@operator:
; Line 834
	cmp	DWORD PTR _State$[rsp], 0
	jne	SHORT $LN13@operator
	mov	rax, QWORD PTR _Ostr$[rsp]
	mov	rax, QWORD PTR [rax]
	movsxd	rax, DWORD PTR [rax+4]
	mov	rcx, QWORD PTR _Ostr$[rsp]
	add	rcx, rax
	mov	rax, rcx
	mov	rcx, rax
	call	QWORD PTR __imp_?rdbuf@?$basic_ios@_WU?$char_traits@_W@std@@@std@@QEBAPEAV?$basic_streambuf@_WU?$char_traits@_W@std@@@2@XZ
	mov	QWORD PTR tv297[rsp], rax
	mov	r8, QWORD PTR _Count$[rsp]
	mov	rdx, QWORD PTR _Val$[rsp]
	mov	rcx, QWORD PTR tv297[rsp]
	call	QWORD PTR __imp_?sputn@?$basic_streambuf@_WU?$char_traits@_W@std@@@std@@QEAA_JPEB_W_J@Z
	mov	QWORD PTR tv298[rsp], rax
	mov	rax, QWORD PTR _Count$[rsp]
	cmp	QWORD PTR tv298[rsp], rax
	je	SHORT $LN13@operator
; Line 835
	mov	eax, DWORD PTR _State$[rsp]
	or	eax, 4
	mov	DWORD PTR _State$[rsp], eax
$LN13@operator:
; Line 838
	cmp	DWORD PTR _State$[rsp], 0
	jne	$LN14@operator
; Line 839
	jmp	SHORT $LN7@operator
$LN5@operator:
	mov	rax, QWORD PTR _Pad$[rsp]
	dec	rax
	mov	QWORD PTR _Pad$[rsp], rax
$LN7@operator:
	cmp	QWORD PTR _Pad$[rsp], 0
	jle	$LN14@operator
; Line 840
	mov	rax, QWORD PTR _Ostr$[rsp]
	mov	rax, QWORD PTR [rax]
	movsxd	rax, DWORD PTR [rax+4]
	mov	rcx, QWORD PTR _Ostr$[rsp]
	add	rcx, rax
	mov	rax, rcx
	mov	rcx, rax
	call	QWORD PTR __imp_?fill@?$basic_ios@_WU?$char_traits@_W@std@@@std@@QEBA_WXZ
	mov	WORD PTR tv299[rsp], ax
	mov	rax, QWORD PTR _Ostr$[rsp]
	mov	rax, QWORD PTR [rax]
	movsxd	rax, DWORD PTR [rax+4]
	mov	rcx, QWORD PTR _Ostr$[rsp]
	add	rcx, rax
	mov	rax, rcx
	mov	rcx, rax
	call	QWORD PTR __imp_?rdbuf@?$basic_ios@_WU?$char_traits@_W@std@@@std@@QEBAPEAV?$basic_streambuf@_WU?$char_traits@_W@std@@@2@XZ
	mov	QWORD PTR tv300[rsp], rax
	movzx	edx, WORD PTR tv299[rsp]
	mov	rcx, QWORD PTR tv300[rsp]
	call	QWORD PTR __imp_?sputc@?$basic_streambuf@_WU?$char_traits@_W@std@@@std@@QEAAG_W@Z
	mov	WORD PTR tv301[rsp], ax
	movzx	eax, WORD PTR tv301[rsp]
	mov	WORD PTR $T6[rsp], ax
	call	?eof@?$_WChar_traits@_W@std@@SAGXZ	; std::_WChar_traits<wchar_t>::eof
	mov	WORD PTR $T7[rsp], ax
	lea	rdx, QWORD PTR $T6[rsp]
	lea	rcx, QWORD PTR $T7[rsp]
	call	?eq_int_type@?$_WChar_traits@_W@std@@SA_NAEBG0@Z ; std::_WChar_traits<wchar_t>::eq_int_type
	movzx	eax, al
	test	eax, eax
	je	SHORT $LN15@operator
; Line 841
	mov	eax, DWORD PTR _State$[rsp]
	or	eax, 4
	mov	DWORD PTR _State$[rsp], eax
; Line 842
	jmp	SHORT $LN14@operator
$LN15@operator:
; Line 844
	jmp	$LN5@operator
$LN14@operator:
; Line 847
	mov	rax, QWORD PTR _Ostr$[rsp]
	mov	rax, QWORD PTR [rax]
	movsxd	rax, DWORD PTR [rax+4]
	mov	rcx, QWORD PTR _Ostr$[rsp]
	add	rcx, rax
	mov	rax, rcx
	xor	edx, edx
	mov	rcx, rax
	call	QWORD PTR __imp_?width@ios_base@std@@QEAA_J_J@Z
	npad	1
	jmp	SHORT $LN9@operator
$LN23@operator:
$LN9@operator:
; Line 851
	mov	rax, QWORD PTR _Ostr$[rsp]
	mov	rax, QWORD PTR [rax]
	movsxd	rax, DWORD PTR [rax+4]
	mov	rcx, QWORD PTR _Ostr$[rsp]
	add	rcx, rax
	mov	rax, rcx
	xor	r8d, r8d
	mov	edx, DWORD PTR _State$[rsp]
	mov	rcx, rax
	call	QWORD PTR __imp_?setstate@?$basic_ios@_WU?$char_traits@_W@std@@@std@@QEAAXH_N@Z
; Line 852
	mov	rax, QWORD PTR _Ostr$[rsp]
	mov	QWORD PTR $T8[rsp], rax
	lea	rcx, QWORD PTR _Ok$[rsp]
	call	??1sentry@?$basic_ostream@_WU?$char_traits@_W@std@@@std@@QEAA@XZ ; std::basic_ostream<wchar_t,std::char_traits<wchar_t> >::sentry::~sentry
	mov	rax, QWORD PTR $T8[rsp]
; Line 853
	mov	rdi, rax
	mov	rcx, rsp
	lea	rdx, OFFSET FLAT:??$?6_WU?$char_traits@_W@std@@@std@@YAAEAV?$basic_ostream@_WU?$char_traits@_W@std@@@0@AEAV10@PEB_W@Z$rtcFrameData
	call	_RTC_CheckStackVars
	mov	rax, rdi
	mov	rcx, QWORD PTR __$ArrayPad$[rsp]
	xor	rcx, rsp
	call	__security_check_cookie
	add	rsp, 208				; 000000d0H
	pop	rdi
	ret	0
??$?6_WU?$char_traits@_W@std@@@std@@YAAEAV?$basic_ostream@_WU?$char_traits@_W@std@@@0@AEAV10@PEB_W@Z ENDP ; std::operator<<<wchar_t,std::char_traits<wchar_t> >
_TEXT	ENDS
;	COMDAT text$x
text$x	SEGMENT
_State$ = 32
_Count$ = 40
_Pad$ = 48
_Ok$ = 72
$T4 = 112
$T5 = 114
$T6 = 116
$T7 = 118
$T8 = 120
tv137 = 128
tv139 = 136
tv294 = 140
tv295 = 144
tv296 = 152
tv297 = 160
tv298 = 168
tv299 = 176
tv300 = 184
tv301 = 192
__$ArrayPad$ = 200
_Ostr$ = 224
_Val$ = 232
?dtor$0@?0???$?6_WU?$char_traits@_W@std@@@std@@YAAEAV?$basic_ostream@_WU?$char_traits@_W@std@@@0@AEAV10@PEB_W@Z@4HA PROC ; `std::operator<<<wchar_t,std::char_traits<wchar_t> >'::`1'::dtor$0
	mov	QWORD PTR [rsp+8], rcx
	mov	QWORD PTR [rsp+16], rdx
	push	rbp
	push	rdi
	sub	rsp, 40					; 00000028H
	mov	rbp, rdx
	lea	rcx, QWORD PTR _Ok$[rbp]
	call	??1sentry@?$basic_ostream@_WU?$char_traits@_W@std@@@std@@QEAA@XZ ; std::basic_ostream<wchar_t,std::char_traits<wchar_t> >::sentry::~sentry
	add	rsp, 40					; 00000028H
	pop	rdi
	pop	rbp
	ret	0
?dtor$0@?0???$?6_WU?$char_traits@_W@std@@@std@@YAAEAV?$basic_ostream@_WU?$char_traits@_W@std@@@0@AEAV10@PEB_W@Z@4HA ENDP ; `std::operator<<<wchar_t,std::char_traits<wchar_t> >'::`1'::dtor$0
text$x	ENDS
;	COMDAT text$x
text$x	SEGMENT
_State$ = 32
_Count$ = 40
_Pad$ = 48
_Ok$ = 72
$T4 = 112
$T5 = 114
$T6 = 116
$T7 = 118
$T8 = 120
tv137 = 128
tv139 = 136
tv294 = 140
tv295 = 144
tv296 = 152
tv297 = 160
tv298 = 168
tv299 = 176
tv300 = 184
tv301 = 192
__$ArrayPad$ = 200
_Ostr$ = 224
_Val$ = 232
?catch$1@?0???$?6_WU?$char_traits@_W@std@@@std@@YAAEAV?$basic_ostream@_WU?$char_traits@_W@std@@@0@AEAV10@PEB_W@Z@4HA PROC ; `std::operator<<<wchar_t,std::char_traits<wchar_t> >'::`1'::catch$1
; Line 848
	mov	QWORD PTR [rsp+8], rcx
	mov	QWORD PTR [rsp+16], rdx
	push	rbp
	push	rdi
	sub	rsp, 40					; 00000028H
	mov	rbp, rdx
__catch$??$?6_WU?$char_traits@_W@std@@@std@@YAAEAV?$basic_ostream@_WU?$char_traits@_W@std@@@0@AEAV10@PEB_W@Z$0:
	mov	rax, QWORD PTR _Ostr$[rbp]
	mov	rax, QWORD PTR [rax]
	movsxd	rax, DWORD PTR [rax+4]
	mov	rcx, QWORD PTR _Ostr$[rbp]
	add	rcx, rax
	mov	rax, rcx
	mov	r8b, 1
	mov	edx, 4
	mov	rcx, rax
	call	QWORD PTR __imp_?setstate@?$basic_ios@_WU?$char_traits@_W@std@@@std@@QEAAXH_N@Z
	npad	1
	lea	rax, $LN23@catch$1
	add	rsp, 40					; 00000028H
	pop	rdi
	pop	rbp
	ret	0
	int	3
?catch$1@?0???$?6_WU?$char_traits@_W@std@@@std@@YAAEAV?$basic_ostream@_WU?$char_traits@_W@std@@@0@AEAV10@PEB_W@Z@4HA ENDP ; `std::operator<<<wchar_t,std::char_traits<wchar_t> >'::`1'::catch$1
text$x	ENDS
; Function compile flags: /Odtp /RTCsu
;	COMDAT text$x
text$x	SEGMENT
_State$ = 32
_Count$ = 40
_Pad$ = 48
_Ok$ = 72
$T4 = 112
$T5 = 114
$T6 = 116
$T7 = 118
$T8 = 120
tv137 = 128
tv139 = 136
tv294 = 140
tv295 = 144
tv296 = 152
tv297 = 160
tv298 = 168
tv299 = 176
tv300 = 184
tv301 = 192
__$ArrayPad$ = 200
_Ostr$ = 224
_Val$ = 232
?dtor$0@?0???$?6_WU?$char_traits@_W@std@@@std@@YAAEAV?$basic_ostream@_WU?$char_traits@_W@std@@@0@AEAV10@PEB_W@Z@4HA PROC ; `std::operator<<<wchar_t,std::char_traits<wchar_t> >'::`1'::dtor$0
	mov	QWORD PTR [rsp+8], rcx
	mov	QWORD PTR [rsp+16], rdx
	push	rbp
	push	rdi
	sub	rsp, 40					; 00000028H
	mov	rbp, rdx
	lea	rcx, QWORD PTR _Ok$[rbp]
	call	??1sentry@?$basic_ostream@_WU?$char_traits@_W@std@@@std@@QEAA@XZ ; std::basic_ostream<wchar_t,std::char_traits<wchar_t> >::sentry::~sentry
	add	rsp, 40					; 00000028H
	pop	rdi
	pop	rbp
	ret	0
?dtor$0@?0???$?6_WU?$char_traits@_W@std@@@std@@YAAEAV?$basic_ostream@_WU?$char_traits@_W@std@@@0@AEAV10@PEB_W@Z@4HA ENDP ; `std::operator<<<wchar_t,std::char_traits<wchar_t> >'::`1'::dtor$0
text$x	ENDS
; Function compile flags: /Odtp /RTCsu
;	COMDAT text$x
text$x	SEGMENT
_State$ = 32
_Count$ = 40
_Pad$ = 48
_Ok$ = 72
$T4 = 112
$T5 = 114
$T6 = 116
$T7 = 118
$T8 = 120
tv137 = 128
tv139 = 136
tv294 = 140
tv295 = 144
tv296 = 152
tv297 = 160
tv298 = 168
tv299 = 176
tv300 = 184
tv301 = 192
__$ArrayPad$ = 200
_Ostr$ = 224
_Val$ = 232
?catch$1@?0???$?6_WU?$char_traits@_W@std@@@std@@YAAEAV?$basic_ostream@_WU?$char_traits@_W@std@@@0@AEAV10@PEB_W@Z@4HA PROC ; `std::operator<<<wchar_t,std::char_traits<wchar_t> >'::`1'::catch$1
; Line 848
	mov	QWORD PTR [rsp+8], rcx
	mov	QWORD PTR [rsp+16], rdx
	push	rbp
	push	rdi
	sub	rsp, 40					; 00000028H
	mov	rbp, rdx
__catch$??$?6_WU?$char_traits@_W@std@@@std@@YAAEAV?$basic_ostream@_WU?$char_traits@_W@std@@@0@AEAV10@PEB_W@Z$0:
	mov	rax, QWORD PTR _Ostr$[rbp]
	mov	rax, QWORD PTR [rax]
	movsxd	rax, DWORD PTR [rax+4]
	mov	rcx, QWORD PTR _Ostr$[rbp]
	add	rcx, rax
	mov	rax, rcx
	mov	r8b, 1
	mov	edx, 4
	mov	rcx, rax
	call	QWORD PTR __imp_?setstate@?$basic_ios@_WU?$char_traits@_W@std@@@std@@QEAAXH_N@Z
	npad	1
	lea	rax, $LN23@catch$1
	add	rsp, 40					; 00000028H
	pop	rdi
	pop	rbp
	ret	0
	int	3
?catch$1@?0???$?6_WU?$char_traits@_W@std@@@std@@YAAEAV?$basic_ostream@_WU?$char_traits@_W@std@@@0@AEAV10@PEB_W@Z@4HA ENDP ; `std::operator<<<wchar_t,std::char_traits<wchar_t> >'::`1'::catch$1
text$x	ENDS
; Function compile flags: /Odtp /RTCsu
_TEXT	SEGMENT
v$ = 40
__$ArrayPad$ = 64
f$ = 96
?ReadResult@@YAXPEAU_iobuf@@@Z PROC			; ReadResult
; File C:\Users\Дмитрий\github_repo\s0172090_computers_net\Задание 1\Server_Application\ClientBinaryFile\ClientBinaryFile.cpp
; Line 31
$LN12:
	mov	QWORD PTR [rsp+8], rcx
	push	rdi
	sub	rsp, 80					; 00000050H
	lea	rdi, QWORD PTR [rsp+32]
	mov	ecx, 12
	mov	eax, -858993460				; ccccccccH
	rep stosd
	mov	rcx, QWORD PTR [rsp+96]
	mov	rax, QWORD PTR __security_cookie
	xor	rax, rsp
	mov	QWORD PTR __$ArrayPad$[rsp], rax
; Line 33
	mov	r9, QWORD PTR f$[rsp]
	mov	r8d, 1
	mov	edx, 8
	lea	rcx, QWORD PTR v$[rsp]
	call	QWORD PTR __imp_fread
	test	rax, rax
	je	$LN2@ReadResult
; Line 34
	movsd	xmm0, QWORD PTR v$[rsp]
	comisd	xmm0, QWORD PTR __real@0000000000000000
	jb	SHORT $LN3@ReadResult
; Line 35
	lea	rdx, OFFSET FLAT:$SG45297
	mov	rcx, QWORD PTR __imp_?wcout@std@@3V?$basic_ostream@_WU?$char_traits@_W@std@@@1@A
	call	??$?6_WU?$char_traits@_W@std@@@std@@YAAEAV?$basic_ostream@_WU?$char_traits@_W@std@@@0@AEAV10@PEB_W@Z ; std::operator<<<wchar_t,std::char_traits<wchar_t> >
	movsd	xmm1, QWORD PTR v$[rsp]
	mov	rcx, rax
	call	QWORD PTR __imp_??6?$basic_ostream@_WU?$char_traits@_W@std@@@std@@QEAAAEAV01@N@Z
	lea	rdx, OFFSET FLAT:$SG45296
	mov	rcx, rax
	call	??$?6_WU?$char_traits@_W@std@@@std@@YAAEAV?$basic_ostream@_WU?$char_traits@_W@std@@@0@AEAV10@PEB_W@Z ; std::operator<<<wchar_t,std::char_traits<wchar_t> >
	lea	rdx, OFFSET FLAT:??$endl@_WU?$char_traits@_W@std@@@std@@YAAEAV?$basic_ostream@_WU?$char_traits@_W@std@@@0@AEAV10@@Z ; std::endl<wchar_t,std::char_traits<wchar_t> >
	mov	rcx, rax
	call	QWORD PTR __imp_??6?$basic_ostream@_WU?$char_traits@_W@std@@@std@@QEAAAEAV01@P6AAEAV01@AEAV01@@Z@Z
; Line 37
	jmp	$LN4@ReadResult
$LN3@ReadResult:
; Line 39
	movsd	xmm0, QWORD PTR v$[rsp]
	ucomisd	xmm0, QWORD PTR __real@c000000000000000
	jp	SHORT $LN5@ReadResult
	jne	SHORT $LN5@ReadResult
; Line 40
	lea	rdx, OFFSET FLAT:$SG45300
	mov	rcx, QWORD PTR __imp_?wcout@std@@3V?$basic_ostream@_WU?$char_traits@_W@std@@@1@A
	call	??$?6_WU?$char_traits@_W@std@@@std@@YAAEAV?$basic_ostream@_WU?$char_traits@_W@std@@@0@AEAV10@PEB_W@Z ; std::operator<<<wchar_t,std::char_traits<wchar_t> >
	lea	rdx, OFFSET FLAT:??$endl@_WU?$char_traits@_W@std@@@std@@YAAEAV?$basic_ostream@_WU?$char_traits@_W@std@@@0@AEAV10@@Z ; std::endl<wchar_t,std::char_traits<wchar_t> >
	mov	rcx, rax
	call	QWORD PTR __imp_??6?$basic_ostream@_WU?$char_traits@_W@std@@@std@@QEAAAEAV01@P6AAEAV01@AEAV01@@Z@Z
; Line 41
	jmp	$LN6@ReadResult
$LN5@ReadResult:
; Line 42
	movsd	xmm0, QWORD PTR v$[rsp]
	ucomisd	xmm0, QWORD PTR __real@c008000000000000
	jp	SHORT $LN7@ReadResult
	jne	SHORT $LN7@ReadResult
; Line 43
	lea	rdx, OFFSET FLAT:$SG45303
	mov	rcx, QWORD PTR __imp_?wcout@std@@3V?$basic_ostream@_WU?$char_traits@_W@std@@@1@A
	call	??$?6_WU?$char_traits@_W@std@@@std@@YAAEAV?$basic_ostream@_WU?$char_traits@_W@std@@@0@AEAV10@PEB_W@Z ; std::operator<<<wchar_t,std::char_traits<wchar_t> >
	lea	rdx, OFFSET FLAT:??$endl@_WU?$char_traits@_W@std@@@std@@YAAEAV?$basic_ostream@_WU?$char_traits@_W@std@@@0@AEAV10@@Z ; std::endl<wchar_t,std::char_traits<wchar_t> >
	mov	rcx, rax
	call	QWORD PTR __imp_??6?$basic_ostream@_WU?$char_traits@_W@std@@@std@@QEAAAEAV01@P6AAEAV01@AEAV01@@Z@Z
; Line 44
	jmp	SHORT $LN8@ReadResult
$LN7@ReadResult:
; Line 45
	movsd	xmm0, QWORD PTR v$[rsp]
	ucomisd	xmm0, QWORD PTR __real@c010000000000000
	jp	SHORT $LN9@ReadResult
	jne	SHORT $LN9@ReadResult
; Line 46
	lea	rdx, OFFSET FLAT:$SG45306
	mov	rcx, QWORD PTR __imp_?wcout@std@@3V?$basic_ostream@_WU?$char_traits@_W@std@@@1@A
	call	??$?6_WU?$char_traits@_W@std@@@std@@YAAEAV?$basic_ostream@_WU?$char_traits@_W@std@@@0@AEAV10@PEB_W@Z ; std::operator<<<wchar_t,std::char_traits<wchar_t> >
